
dijkstra.elf:     file format elf32-avr

Sections:
Idx Name          Size      VMA       LMA       File off  Algn
  0 .data         0000000c  00800200  000032da  0000336e  2**0
                  CONTENTS, ALLOC, LOAD, DATA
  1 .text         000032da  00000000  00000000  00000094  2**1
                  CONTENTS, ALLOC, LOAD, READONLY, CODE
  2 .bss          000000f4  0080020c  0080020c  0000337a  2**0
                  ALLOC
  3 .comment      00000030  00000000  00000000  0000337a  2**0
                  CONTENTS, READONLY
  4 .note.gnu.avr.deviceinfo 00000040  00000000  00000000  000033ac  2**2
                  CONTENTS, READONLY
  5 .debug_aranges 00000150  00000000  00000000  000033ec  2**0
                  CONTENTS, READONLY, DEBUGGING
  6 .debug_info   00001bdb  00000000  00000000  0000353c  2**0
                  CONTENTS, READONLY, DEBUGGING
  7 .debug_abbrev 00000dee  00000000  00000000  00005117  2**0
                  CONTENTS, READONLY, DEBUGGING
  8 .debug_line   00001438  00000000  00000000  00005f05  2**0
                  CONTENTS, READONLY, DEBUGGING
  9 .debug_frame  0000053c  00000000  00000000  00007340  2**2
                  CONTENTS, READONLY, DEBUGGING
 10 .debug_str    00000915  00000000  00000000  0000787c  2**0
                  CONTENTS, READONLY, DEBUGGING
 11 .debug_loc    00000ab0  00000000  00000000  00008191  2**0
                  CONTENTS, READONLY, DEBUGGING
 12 .debug_ranges 00000140  00000000  00000000  00008c41  2**0
                  CONTENTS, READONLY, DEBUGGING

Disassembly of section .text:

00000000 <__vectors>:
       0:	71 c0       	rjmp	.+226    	; 0xe4 <__ctors_end>
       2:	00 00       	nop
       4:	90 c0       	rjmp	.+288    	; 0x126 <__bad_interrupt>
       6:	00 00       	nop
       8:	8e c0       	rjmp	.+284    	; 0x126 <__bad_interrupt>
       a:	00 00       	nop
       c:	8c c0       	rjmp	.+280    	; 0x126 <__bad_interrupt>
       e:	00 00       	nop
      10:	8a c0       	rjmp	.+276    	; 0x126 <__bad_interrupt>
      12:	00 00       	nop
      14:	0c 94 36 0c 	jmp	0x186c	; 0x186c <__vector_5>
      18:	0c 94 08 0c 	jmp	0x1810	; 0x1810 <__vector_6>
      1c:	84 c0       	rjmp	.+264    	; 0x126 <__bad_interrupt>
      1e:	00 00       	nop
      20:	82 c0       	rjmp	.+260    	; 0x126 <__bad_interrupt>
      22:	00 00       	nop
      24:	80 c0       	rjmp	.+256    	; 0x126 <__bad_interrupt>
      26:	00 00       	nop
      28:	7e c0       	rjmp	.+252    	; 0x126 <__bad_interrupt>
      2a:	00 00       	nop
      2c:	7c c0       	rjmp	.+248    	; 0x126 <__bad_interrupt>
      2e:	00 00       	nop
      30:	7a c0       	rjmp	.+244    	; 0x126 <__bad_interrupt>
      32:	00 00       	nop
      34:	78 c0       	rjmp	.+240    	; 0x126 <__bad_interrupt>
      36:	00 00       	nop
      38:	76 c0       	rjmp	.+236    	; 0x126 <__bad_interrupt>
      3a:	00 00       	nop
      3c:	74 c0       	rjmp	.+232    	; 0x126 <__bad_interrupt>
      3e:	00 00       	nop
      40:	72 c0       	rjmp	.+228    	; 0x126 <__bad_interrupt>
      42:	00 00       	nop
      44:	70 c0       	rjmp	.+224    	; 0x126 <__bad_interrupt>
      46:	00 00       	nop
      48:	6e c0       	rjmp	.+220    	; 0x126 <__bad_interrupt>
      4a:	00 00       	nop
      4c:	6c c0       	rjmp	.+216    	; 0x126 <__bad_interrupt>
      4e:	00 00       	nop
      50:	6a c0       	rjmp	.+212    	; 0x126 <__bad_interrupt>
      52:	00 00       	nop
      54:	68 c0       	rjmp	.+208    	; 0x126 <__bad_interrupt>
      56:	00 00       	nop
      58:	66 c0       	rjmp	.+204    	; 0x126 <__bad_interrupt>
      5a:	00 00       	nop
      5c:	64 c0       	rjmp	.+200    	; 0x126 <__bad_interrupt>
      5e:	00 00       	nop
      60:	62 c0       	rjmp	.+196    	; 0x126 <__bad_interrupt>
      62:	00 00       	nop
      64:	60 c0       	rjmp	.+192    	; 0x126 <__bad_interrupt>
      66:	00 00       	nop
      68:	5e c0       	rjmp	.+188    	; 0x126 <__bad_interrupt>
      6a:	00 00       	nop
      6c:	5c c0       	rjmp	.+184    	; 0x126 <__bad_interrupt>
      6e:	00 00       	nop
      70:	5a c0       	rjmp	.+180    	; 0x126 <__bad_interrupt>
      72:	00 00       	nop
      74:	58 c0       	rjmp	.+176    	; 0x126 <__bad_interrupt>
      76:	00 00       	nop
      78:	56 c0       	rjmp	.+172    	; 0x126 <__bad_interrupt>
      7a:	00 00       	nop
      7c:	54 c0       	rjmp	.+168    	; 0x126 <__bad_interrupt>
      7e:	00 00       	nop
      80:	52 c0       	rjmp	.+164    	; 0x126 <__bad_interrupt>
      82:	00 00       	nop
      84:	50 c0       	rjmp	.+160    	; 0x126 <__bad_interrupt>
      86:	00 00       	nop
      88:	4e c0       	rjmp	.+156    	; 0x126 <__bad_interrupt>
      8a:	00 00       	nop
      8c:	4c c0       	rjmp	.+152    	; 0x126 <__bad_interrupt>
      8e:	00 00       	nop
      90:	4a c0       	rjmp	.+148    	; 0x126 <__bad_interrupt>
      92:	00 00       	nop
      94:	48 c0       	rjmp	.+144    	; 0x126 <__bad_interrupt>
      96:	00 00       	nop
      98:	46 c0       	rjmp	.+140    	; 0x126 <__bad_interrupt>
      9a:	00 00       	nop
      9c:	44 c0       	rjmp	.+136    	; 0x126 <__bad_interrupt>
      9e:	00 00       	nop
      a0:	42 c0       	rjmp	.+132    	; 0x126 <__bad_interrupt>
      a2:	00 00       	nop
      a4:	40 c0       	rjmp	.+128    	; 0x126 <__bad_interrupt>
      a6:	00 00       	nop
      a8:	3e c0       	rjmp	.+124    	; 0x126 <__bad_interrupt>
      aa:	00 00       	nop
      ac:	3c c0       	rjmp	.+120    	; 0x126 <__bad_interrupt>
      ae:	00 00       	nop
      b0:	3a c0       	rjmp	.+116    	; 0x126 <__bad_interrupt>
      b2:	00 00       	nop
      b4:	38 c0       	rjmp	.+112    	; 0x126 <__bad_interrupt>
      b6:	00 00       	nop
      b8:	36 c0       	rjmp	.+108    	; 0x126 <__bad_interrupt>
      ba:	00 00       	nop
      bc:	34 c0       	rjmp	.+104    	; 0x126 <__bad_interrupt>
      be:	00 00       	nop
      c0:	32 c0       	rjmp	.+100    	; 0x126 <__bad_interrupt>
      c2:	00 00       	nop
      c4:	30 c0       	rjmp	.+96     	; 0x126 <__bad_interrupt>
      c6:	00 00       	nop
      c8:	2e c0       	rjmp	.+92     	; 0x126 <__bad_interrupt>
      ca:	00 00       	nop
      cc:	2c c0       	rjmp	.+88     	; 0x126 <__bad_interrupt>
      ce:	00 00       	nop
      d0:	2a c0       	rjmp	.+84     	; 0x126 <__bad_interrupt>
      d2:	00 00       	nop
      d4:	28 c0       	rjmp	.+80     	; 0x126 <__bad_interrupt>
      d6:	00 00       	nop
      d8:	26 c0       	rjmp	.+76     	; 0x126 <__bad_interrupt>
      da:	00 00       	nop
      dc:	24 c0       	rjmp	.+72     	; 0x126 <__bad_interrupt>
      de:	00 00       	nop
      e0:	22 c0       	rjmp	.+68     	; 0x126 <__bad_interrupt>
	...

000000e4 <__ctors_end>:
      e4:	11 24       	eor	r1, r1
      e6:	1f be       	out	0x3f, r1	; 63
      e8:	cf ef       	ldi	r28, 0xFF	; 255
      ea:	d1 e2       	ldi	r29, 0x21	; 33
      ec:	de bf       	out	0x3e, r29	; 62
      ee:	cd bf       	out	0x3d, r28	; 61
      f0:	00 e0       	ldi	r16, 0x00	; 0
      f2:	0c bf       	out	0x3c, r16	; 60

000000f4 <__do_copy_data>:
      f4:	12 e0       	ldi	r17, 0x02	; 2
      f6:	a0 e0       	ldi	r26, 0x00	; 0
      f8:	b2 e0       	ldi	r27, 0x02	; 2
      fa:	ea ed       	ldi	r30, 0xDA	; 218
      fc:	f2 e3       	ldi	r31, 0x32	; 50
      fe:	00 e0       	ldi	r16, 0x00	; 0
     100:	0b bf       	out	0x3b, r16	; 59
     102:	02 c0       	rjmp	.+4      	; 0x108 <__do_copy_data+0x14>
     104:	07 90       	elpm	r0, Z+
     106:	0d 92       	st	X+, r0
     108:	ac 30       	cpi	r26, 0x0C	; 12
     10a:	b1 07       	cpc	r27, r17
     10c:	d9 f7       	brne	.-10     	; 0x104 <__do_copy_data+0x10>

0000010e <__do_clear_bss>:
     10e:	23 e0       	ldi	r18, 0x03	; 3
     110:	ac e0       	ldi	r26, 0x0C	; 12
     112:	b2 e0       	ldi	r27, 0x02	; 2
     114:	01 c0       	rjmp	.+2      	; 0x118 <.do_clear_bss_start>

00000116 <.do_clear_bss_loop>:
     116:	1d 92       	st	X+, r1

00000118 <.do_clear_bss_start>:
     118:	a0 30       	cpi	r26, 0x00	; 0
     11a:	b2 07       	cpc	r27, r18
     11c:	e1 f7       	brne	.-8      	; 0x116 <.do_clear_bss_loop>
     11e:	0e 94 e2 13 	call	0x27c4	; 0x27c4 <main>
     122:	0c 94 6b 19 	jmp	0x32d6	; 0x32d6 <_exit>

00000126 <__bad_interrupt>:
     126:	6c cf       	rjmp	.-296    	; 0x0 <__vectors>

00000128 <lcd_set_4bit>:

void back_mm(unsigned int DistanceInMM)
{
	back();
	linear_distance_mm(DistanceInMM);
}
     128:	0f 93       	push	r16
     12a:	1f 93       	push	r17
     12c:	cf 93       	push	r28
     12e:	df 93       	push	r29
     130:	cd b7       	in	r28, 0x3d	; 61
     132:	de b7       	in	r29, 0x3e	; 62
     134:	c0 57       	subi	r28, 0x70	; 112
     136:	d1 09       	sbc	r29, r1
     138:	0f b6       	in	r0, 0x3f	; 63
     13a:	f8 94       	cli
     13c:	de bf       	out	0x3e, r29	; 62
     13e:	0f be       	out	0x3f, r0	; 63
     140:	cd bf       	out	0x3d, r28	; 61
     142:	80 e0       	ldi	r24, 0x00	; 0
     144:	90 e0       	ldi	r25, 0x00	; 0
     146:	a0 e8       	ldi	r26, 0x80	; 128
     148:	bf e3       	ldi	r27, 0x3F	; 63
     14a:	89 83       	std	Y+1, r24	; 0x01
     14c:	9a 83       	std	Y+2, r25	; 0x02
     14e:	ab 83       	std	Y+3, r26	; 0x03
     150:	bc 83       	std	Y+4, r27	; 0x04
     152:	8e 01       	movw	r16, r28
     154:	09 59       	subi	r16, 0x99	; 153
     156:	1f 4f       	sbci	r17, 0xFF	; 255
     158:	26 e6       	ldi	r18, 0x66	; 102
     15a:	36 e6       	ldi	r19, 0x66	; 102
     15c:	46 e6       	ldi	r20, 0x66	; 102
     15e:	55 e4       	ldi	r21, 0x45	; 69
     160:	69 81       	ldd	r22, Y+1	; 0x01
     162:	7a 81       	ldd	r23, Y+2	; 0x02
     164:	8b 81       	ldd	r24, Y+3	; 0x03
     166:	9c 81       	ldd	r25, Y+4	; 0x04
     168:	0e 94 f9 18 	call	0x31f2	; 0x31f2 <__mulsf3>
     16c:	dc 01       	movw	r26, r24
     16e:	cb 01       	movw	r24, r22
     170:	f8 01       	movw	r30, r16
     172:	80 83       	st	Z, r24
     174:	91 83       	std	Z+1, r25	; 0x01
     176:	a2 83       	std	Z+2, r26	; 0x02
     178:	b3 83       	std	Z+3, r27	; 0x03
     17a:	ce 01       	movw	r24, r28
     17c:	89 59       	subi	r24, 0x99	; 153
     17e:	9f 4f       	sbci	r25, 0xFF	; 255
     180:	20 e0       	ldi	r18, 0x00	; 0
     182:	30 e0       	ldi	r19, 0x00	; 0
     184:	40 e8       	ldi	r20, 0x80	; 128
     186:	5f e3       	ldi	r21, 0x3F	; 63
     188:	fc 01       	movw	r30, r24
     18a:	60 81       	ld	r22, Z
     18c:	71 81       	ldd	r23, Z+1	; 0x01
     18e:	82 81       	ldd	r24, Z+2	; 0x02
     190:	93 81       	ldd	r25, Z+3	; 0x03
     192:	0e 94 ab 17 	call	0x2f56	; 0x2f56 <__cmpsf2>
     196:	88 23       	and	r24, r24
     198:	4c f4       	brge	.+18     	; 0x1ac <lcd_set_4bit+0x84>
     19a:	ce 01       	movw	r24, r28
     19c:	85 59       	subi	r24, 0x95	; 149
     19e:	9f 4f       	sbci	r25, 0xFF	; 255
     1a0:	21 e0       	ldi	r18, 0x01	; 1
     1a2:	30 e0       	ldi	r19, 0x00	; 0
     1a4:	fc 01       	movw	r30, r24
     1a6:	31 83       	std	Z+1, r19	; 0x01
     1a8:	20 83       	st	Z, r18
     1aa:	69 c0       	rjmp	.+210    	; 0x27e <lcd_set_4bit+0x156>
     1ac:	ce 01       	movw	r24, r28
     1ae:	89 59       	subi	r24, 0x99	; 153
     1b0:	9f 4f       	sbci	r25, 0xFF	; 255
     1b2:	20 e0       	ldi	r18, 0x00	; 0
     1b4:	3f ef       	ldi	r19, 0xFF	; 255
     1b6:	4f e7       	ldi	r20, 0x7F	; 127
     1b8:	57 e4       	ldi	r21, 0x47	; 71
     1ba:	fc 01       	movw	r30, r24
     1bc:	60 81       	ld	r22, Z
     1be:	71 81       	ldd	r23, Z+1	; 0x01
     1c0:	82 81       	ldd	r24, Z+2	; 0x02
     1c2:	93 81       	ldd	r25, Z+3	; 0x03
     1c4:	0e 94 f5 18 	call	0x31ea	; 0x31ea <__gesf2>
     1c8:	18 16       	cp	r1, r24
     1ca:	0c f0       	brlt	.+2      	; 0x1ce <lcd_set_4bit+0xa6>
     1cc:	46 c0       	rjmp	.+140    	; 0x25a <lcd_set_4bit+0x132>
     1ce:	20 e0       	ldi	r18, 0x00	; 0
     1d0:	30 e0       	ldi	r19, 0x00	; 0
     1d2:	40 e2       	ldi	r20, 0x20	; 32
     1d4:	51 e4       	ldi	r21, 0x41	; 65
     1d6:	69 81       	ldd	r22, Y+1	; 0x01
     1d8:	7a 81       	ldd	r23, Y+2	; 0x02
     1da:	8b 81       	ldd	r24, Y+3	; 0x03
     1dc:	9c 81       	ldd	r25, Y+4	; 0x04
     1de:	0e 94 f9 18 	call	0x31f2	; 0x31f2 <__mulsf3>
     1e2:	dc 01       	movw	r26, r24
     1e4:	cb 01       	movw	r24, r22
     1e6:	8e 01       	movw	r16, r28
     1e8:	05 59       	subi	r16, 0x95	; 149
     1ea:	1f 4f       	sbci	r17, 0xFF	; 255
     1ec:	bc 01       	movw	r22, r24
     1ee:	cd 01       	movw	r24, r26
     1f0:	0e 94 17 18 	call	0x302e	; 0x302e <__fixunssfsi>
     1f4:	dc 01       	movw	r26, r24
     1f6:	cb 01       	movw	r24, r22
     1f8:	f8 01       	movw	r30, r16
     1fa:	91 83       	std	Z+1, r25	; 0x01
     1fc:	80 83       	st	Z, r24
     1fe:	24 c0       	rjmp	.+72     	; 0x248 <lcd_set_4bit+0x120>
     200:	ce 01       	movw	r24, r28
     202:	83 59       	subi	r24, 0x93	; 147
     204:	9f 4f       	sbci	r25, 0xFF	; 255
     206:	20 e7       	ldi	r18, 0x70	; 112
     208:	31 e0       	ldi	r19, 0x01	; 1
     20a:	fc 01       	movw	r30, r24
     20c:	31 83       	std	Z+1, r19	; 0x01
     20e:	20 83       	st	Z, r18
     210:	ce 01       	movw	r24, r28
     212:	83 59       	subi	r24, 0x93	; 147
     214:	9f 4f       	sbci	r25, 0xFF	; 255
     216:	fc 01       	movw	r30, r24
     218:	80 81       	ld	r24, Z
     21a:	91 81       	ldd	r25, Z+1	; 0x01
     21c:	01 97       	sbiw	r24, 0x01	; 1
     21e:	f1 f7       	brne	.-4      	; 0x21c <lcd_set_4bit+0xf4>
     220:	9e 01       	movw	r18, r28
     222:	23 59       	subi	r18, 0x93	; 147
     224:	3f 4f       	sbci	r19, 0xFF	; 255
     226:	f9 01       	movw	r30, r18
     228:	91 83       	std	Z+1, r25	; 0x01
     22a:	80 83       	st	Z, r24
     22c:	ce 01       	movw	r24, r28
     22e:	85 59       	subi	r24, 0x95	; 149
     230:	9f 4f       	sbci	r25, 0xFF	; 255
     232:	9e 01       	movw	r18, r28
     234:	25 59       	subi	r18, 0x95	; 149
     236:	3f 4f       	sbci	r19, 0xFF	; 255
     238:	f9 01       	movw	r30, r18
     23a:	20 81       	ld	r18, Z
     23c:	31 81       	ldd	r19, Z+1	; 0x01
     23e:	21 50       	subi	r18, 0x01	; 1
     240:	31 09       	sbc	r19, r1
     242:	fc 01       	movw	r30, r24
     244:	31 83       	std	Z+1, r19	; 0x01
     246:	20 83       	st	Z, r18
     248:	ce 01       	movw	r24, r28
     24a:	85 59       	subi	r24, 0x95	; 149
     24c:	9f 4f       	sbci	r25, 0xFF	; 255
     24e:	fc 01       	movw	r30, r24
     250:	80 81       	ld	r24, Z
     252:	91 81       	ldd	r25, Z+1	; 0x01
     254:	89 2b       	or	r24, r25
     256:	a1 f6       	brne	.-88     	; 0x200 <lcd_set_4bit+0xd8>
     258:	2c c0       	rjmp	.+88     	; 0x2b2 <lcd_set_4bit+0x18a>
     25a:	8e 01       	movw	r16, r28
     25c:	05 59       	subi	r16, 0x95	; 149
     25e:	1f 4f       	sbci	r17, 0xFF	; 255
     260:	ce 01       	movw	r24, r28
     262:	89 59       	subi	r24, 0x99	; 153
     264:	9f 4f       	sbci	r25, 0xFF	; 255
     266:	fc 01       	movw	r30, r24
     268:	60 81       	ld	r22, Z
     26a:	71 81       	ldd	r23, Z+1	; 0x01
     26c:	82 81       	ldd	r24, Z+2	; 0x02
     26e:	93 81       	ldd	r25, Z+3	; 0x03
     270:	0e 94 17 18 	call	0x302e	; 0x302e <__fixunssfsi>
     274:	dc 01       	movw	r26, r24
     276:	cb 01       	movw	r24, r22
     278:	f8 01       	movw	r30, r16
     27a:	91 83       	std	Z+1, r25	; 0x01
     27c:	80 83       	st	Z, r24
     27e:	ce 01       	movw	r24, r28
     280:	81 59       	subi	r24, 0x91	; 145
     282:	9f 4f       	sbci	r25, 0xFF	; 255
     284:	9e 01       	movw	r18, r28
     286:	25 59       	subi	r18, 0x95	; 149
     288:	3f 4f       	sbci	r19, 0xFF	; 255
     28a:	f9 01       	movw	r30, r18
     28c:	20 81       	ld	r18, Z
     28e:	31 81       	ldd	r19, Z+1	; 0x01
     290:	fc 01       	movw	r30, r24
     292:	31 83       	std	Z+1, r19	; 0x01
     294:	20 83       	st	Z, r18
     296:	ce 01       	movw	r24, r28
     298:	81 59       	subi	r24, 0x91	; 145
     29a:	9f 4f       	sbci	r25, 0xFF	; 255
     29c:	fc 01       	movw	r30, r24
     29e:	80 81       	ld	r24, Z
     2a0:	91 81       	ldd	r25, Z+1	; 0x01
     2a2:	01 97       	sbiw	r24, 0x01	; 1
     2a4:	f1 f7       	brne	.-4      	; 0x2a2 <lcd_set_4bit+0x17a>
     2a6:	9e 01       	movw	r18, r28
     2a8:	21 59       	subi	r18, 0x91	; 145
     2aa:	3f 4f       	sbci	r19, 0xFF	; 255
     2ac:	f9 01       	movw	r30, r18
     2ae:	91 83       	std	Z+1, r25	; 0x01
     2b0:	80 83       	st	Z, r24
     2b2:	88 e2       	ldi	r24, 0x28	; 40
     2b4:	90 e0       	ldi	r25, 0x00	; 0
     2b6:	28 e2       	ldi	r18, 0x28	; 40
     2b8:	30 e0       	ldi	r19, 0x00	; 0
     2ba:	f9 01       	movw	r30, r18
     2bc:	20 81       	ld	r18, Z
     2be:	2e 7f       	andi	r18, 0xFE	; 254
     2c0:	fc 01       	movw	r30, r24
     2c2:	20 83       	st	Z, r18
     2c4:	88 e2       	ldi	r24, 0x28	; 40
     2c6:	90 e0       	ldi	r25, 0x00	; 0
     2c8:	28 e2       	ldi	r18, 0x28	; 40
     2ca:	30 e0       	ldi	r19, 0x00	; 0
     2cc:	f9 01       	movw	r30, r18
     2ce:	20 81       	ld	r18, Z
     2d0:	2d 7f       	andi	r18, 0xFD	; 253
     2d2:	fc 01       	movw	r30, r24
     2d4:	20 83       	st	Z, r18
     2d6:	88 e2       	ldi	r24, 0x28	; 40
     2d8:	90 e0       	ldi	r25, 0x00	; 0
     2da:	20 e3       	ldi	r18, 0x30	; 48
     2dc:	fc 01       	movw	r30, r24
     2de:	20 83       	st	Z, r18
     2e0:	88 e2       	ldi	r24, 0x28	; 40
     2e2:	90 e0       	ldi	r25, 0x00	; 0
     2e4:	28 e2       	ldi	r18, 0x28	; 40
     2e6:	30 e0       	ldi	r19, 0x00	; 0
     2e8:	f9 01       	movw	r30, r18
     2ea:	20 81       	ld	r18, Z
     2ec:	24 60       	ori	r18, 0x04	; 4
     2ee:	fc 01       	movw	r30, r24
     2f0:	20 83       	st	Z, r18
     2f2:	80 e0       	ldi	r24, 0x00	; 0
     2f4:	90 e0       	ldi	r25, 0x00	; 0
     2f6:	a0 ea       	ldi	r26, 0xA0	; 160
     2f8:	b0 e4       	ldi	r27, 0x40	; 64
     2fa:	8d 83       	std	Y+5, r24	; 0x05
     2fc:	9e 83       	std	Y+6, r25	; 0x06
     2fe:	af 83       	std	Y+7, r26	; 0x07
     300:	b8 87       	std	Y+8, r27	; 0x08
     302:	8e 01       	movw	r16, r28
     304:	03 5a       	subi	r16, 0xA3	; 163
     306:	1f 4f       	sbci	r17, 0xFF	; 255
     308:	26 e6       	ldi	r18, 0x66	; 102
     30a:	36 e6       	ldi	r19, 0x66	; 102
     30c:	46 e6       	ldi	r20, 0x66	; 102
     30e:	55 e4       	ldi	r21, 0x45	; 69
     310:	6d 81       	ldd	r22, Y+5	; 0x05
     312:	7e 81       	ldd	r23, Y+6	; 0x06
     314:	8f 81       	ldd	r24, Y+7	; 0x07
     316:	98 85       	ldd	r25, Y+8	; 0x08
     318:	0e 94 f9 18 	call	0x31f2	; 0x31f2 <__mulsf3>
     31c:	dc 01       	movw	r26, r24
     31e:	cb 01       	movw	r24, r22
     320:	f8 01       	movw	r30, r16
     322:	80 83       	st	Z, r24
     324:	91 83       	std	Z+1, r25	; 0x01
     326:	a2 83       	std	Z+2, r26	; 0x02
     328:	b3 83       	std	Z+3, r27	; 0x03
     32a:	ce 01       	movw	r24, r28
     32c:	83 5a       	subi	r24, 0xA3	; 163
     32e:	9f 4f       	sbci	r25, 0xFF	; 255
     330:	20 e0       	ldi	r18, 0x00	; 0
     332:	30 e0       	ldi	r19, 0x00	; 0
     334:	40 e8       	ldi	r20, 0x80	; 128
     336:	5f e3       	ldi	r21, 0x3F	; 63
     338:	fc 01       	movw	r30, r24
     33a:	60 81       	ld	r22, Z
     33c:	71 81       	ldd	r23, Z+1	; 0x01
     33e:	82 81       	ldd	r24, Z+2	; 0x02
     340:	93 81       	ldd	r25, Z+3	; 0x03
     342:	0e 94 ab 17 	call	0x2f56	; 0x2f56 <__cmpsf2>
     346:	88 23       	and	r24, r24
     348:	4c f4       	brge	.+18     	; 0x35c <lcd_set_4bit+0x234>
     34a:	ce 01       	movw	r24, r28
     34c:	8f 59       	subi	r24, 0x9F	; 159
     34e:	9f 4f       	sbci	r25, 0xFF	; 255
     350:	21 e0       	ldi	r18, 0x01	; 1
     352:	30 e0       	ldi	r19, 0x00	; 0
     354:	fc 01       	movw	r30, r24
     356:	31 83       	std	Z+1, r19	; 0x01
     358:	20 83       	st	Z, r18
     35a:	69 c0       	rjmp	.+210    	; 0x42e <__LOCK_REGION_LENGTH__+0x2e>
     35c:	ce 01       	movw	r24, r28
     35e:	83 5a       	subi	r24, 0xA3	; 163
     360:	9f 4f       	sbci	r25, 0xFF	; 255
     362:	20 e0       	ldi	r18, 0x00	; 0
     364:	3f ef       	ldi	r19, 0xFF	; 255
     366:	4f e7       	ldi	r20, 0x7F	; 127
     368:	57 e4       	ldi	r21, 0x47	; 71
     36a:	fc 01       	movw	r30, r24
     36c:	60 81       	ld	r22, Z
     36e:	71 81       	ldd	r23, Z+1	; 0x01
     370:	82 81       	ldd	r24, Z+2	; 0x02
     372:	93 81       	ldd	r25, Z+3	; 0x03
     374:	0e 94 f5 18 	call	0x31ea	; 0x31ea <__gesf2>
     378:	18 16       	cp	r1, r24
     37a:	0c f0       	brlt	.+2      	; 0x37e <lcd_set_4bit+0x256>
     37c:	46 c0       	rjmp	.+140    	; 0x40a <__LOCK_REGION_LENGTH__+0xa>
     37e:	20 e0       	ldi	r18, 0x00	; 0
     380:	30 e0       	ldi	r19, 0x00	; 0
     382:	40 e2       	ldi	r20, 0x20	; 32
     384:	51 e4       	ldi	r21, 0x41	; 65
     386:	6d 81       	ldd	r22, Y+5	; 0x05
     388:	7e 81       	ldd	r23, Y+6	; 0x06
     38a:	8f 81       	ldd	r24, Y+7	; 0x07
     38c:	98 85       	ldd	r25, Y+8	; 0x08
     38e:	0e 94 f9 18 	call	0x31f2	; 0x31f2 <__mulsf3>
     392:	dc 01       	movw	r26, r24
     394:	cb 01       	movw	r24, r22
     396:	8e 01       	movw	r16, r28
     398:	0f 59       	subi	r16, 0x9F	; 159
     39a:	1f 4f       	sbci	r17, 0xFF	; 255
     39c:	bc 01       	movw	r22, r24
     39e:	cd 01       	movw	r24, r26
     3a0:	0e 94 17 18 	call	0x302e	; 0x302e <__fixunssfsi>
     3a4:	dc 01       	movw	r26, r24
     3a6:	cb 01       	movw	r24, r22
     3a8:	f8 01       	movw	r30, r16
     3aa:	91 83       	std	Z+1, r25	; 0x01
     3ac:	80 83       	st	Z, r24
     3ae:	24 c0       	rjmp	.+72     	; 0x3f8 <lcd_set_4bit+0x2d0>
     3b0:	ce 01       	movw	r24, r28
     3b2:	8d 59       	subi	r24, 0x9D	; 157
     3b4:	9f 4f       	sbci	r25, 0xFF	; 255
     3b6:	20 e7       	ldi	r18, 0x70	; 112
     3b8:	31 e0       	ldi	r19, 0x01	; 1
     3ba:	fc 01       	movw	r30, r24
     3bc:	31 83       	std	Z+1, r19	; 0x01
     3be:	20 83       	st	Z, r18
     3c0:	ce 01       	movw	r24, r28
     3c2:	8d 59       	subi	r24, 0x9D	; 157
     3c4:	9f 4f       	sbci	r25, 0xFF	; 255
     3c6:	fc 01       	movw	r30, r24
     3c8:	80 81       	ld	r24, Z
     3ca:	91 81       	ldd	r25, Z+1	; 0x01
     3cc:	01 97       	sbiw	r24, 0x01	; 1
     3ce:	f1 f7       	brne	.-4      	; 0x3cc <lcd_set_4bit+0x2a4>
     3d0:	9e 01       	movw	r18, r28
     3d2:	2d 59       	subi	r18, 0x9D	; 157
     3d4:	3f 4f       	sbci	r19, 0xFF	; 255
     3d6:	f9 01       	movw	r30, r18
     3d8:	91 83       	std	Z+1, r25	; 0x01
     3da:	80 83       	st	Z, r24
     3dc:	ce 01       	movw	r24, r28
     3de:	8f 59       	subi	r24, 0x9F	; 159
     3e0:	9f 4f       	sbci	r25, 0xFF	; 255
     3e2:	9e 01       	movw	r18, r28
     3e4:	2f 59       	subi	r18, 0x9F	; 159
     3e6:	3f 4f       	sbci	r19, 0xFF	; 255
     3e8:	f9 01       	movw	r30, r18
     3ea:	20 81       	ld	r18, Z
     3ec:	31 81       	ldd	r19, Z+1	; 0x01
     3ee:	21 50       	subi	r18, 0x01	; 1
     3f0:	31 09       	sbc	r19, r1
     3f2:	fc 01       	movw	r30, r24
     3f4:	31 83       	std	Z+1, r19	; 0x01
     3f6:	20 83       	st	Z, r18
     3f8:	ce 01       	movw	r24, r28
     3fa:	8f 59       	subi	r24, 0x9F	; 159
     3fc:	9f 4f       	sbci	r25, 0xFF	; 255
     3fe:	fc 01       	movw	r30, r24
     400:	80 81       	ld	r24, Z
     402:	91 81       	ldd	r25, Z+1	; 0x01
     404:	89 2b       	or	r24, r25
     406:	a1 f6       	brne	.-88     	; 0x3b0 <lcd_set_4bit+0x288>
     408:	2c c0       	rjmp	.+88     	; 0x462 <__LOCK_REGION_LENGTH__+0x62>
     40a:	8e 01       	movw	r16, r28
     40c:	0f 59       	subi	r16, 0x9F	; 159
     40e:	1f 4f       	sbci	r17, 0xFF	; 255
     410:	ce 01       	movw	r24, r28
     412:	83 5a       	subi	r24, 0xA3	; 163
     414:	9f 4f       	sbci	r25, 0xFF	; 255
     416:	fc 01       	movw	r30, r24
     418:	60 81       	ld	r22, Z
     41a:	71 81       	ldd	r23, Z+1	; 0x01
     41c:	82 81       	ldd	r24, Z+2	; 0x02
     41e:	93 81       	ldd	r25, Z+3	; 0x03
     420:	0e 94 17 18 	call	0x302e	; 0x302e <__fixunssfsi>
     424:	dc 01       	movw	r26, r24
     426:	cb 01       	movw	r24, r22
     428:	f8 01       	movw	r30, r16
     42a:	91 83       	std	Z+1, r25	; 0x01
     42c:	80 83       	st	Z, r24
     42e:	ce 01       	movw	r24, r28
     430:	8b 59       	subi	r24, 0x9B	; 155
     432:	9f 4f       	sbci	r25, 0xFF	; 255
     434:	9e 01       	movw	r18, r28
     436:	2f 59       	subi	r18, 0x9F	; 159
     438:	3f 4f       	sbci	r19, 0xFF	; 255
     43a:	f9 01       	movw	r30, r18
     43c:	20 81       	ld	r18, Z
     43e:	31 81       	ldd	r19, Z+1	; 0x01
     440:	fc 01       	movw	r30, r24
     442:	31 83       	std	Z+1, r19	; 0x01
     444:	20 83       	st	Z, r18
     446:	ce 01       	movw	r24, r28
     448:	8b 59       	subi	r24, 0x9B	; 155
     44a:	9f 4f       	sbci	r25, 0xFF	; 255
     44c:	fc 01       	movw	r30, r24
     44e:	80 81       	ld	r24, Z
     450:	91 81       	ldd	r25, Z+1	; 0x01
     452:	01 97       	sbiw	r24, 0x01	; 1
     454:	f1 f7       	brne	.-4      	; 0x452 <__LOCK_REGION_LENGTH__+0x52>
     456:	9e 01       	movw	r18, r28
     458:	2b 59       	subi	r18, 0x9B	; 155
     45a:	3f 4f       	sbci	r19, 0xFF	; 255
     45c:	f9 01       	movw	r30, r18
     45e:	91 83       	std	Z+1, r25	; 0x01
     460:	80 83       	st	Z, r24
     462:	88 e2       	ldi	r24, 0x28	; 40
     464:	90 e0       	ldi	r25, 0x00	; 0
     466:	28 e2       	ldi	r18, 0x28	; 40
     468:	30 e0       	ldi	r19, 0x00	; 0
     46a:	f9 01       	movw	r30, r18
     46c:	20 81       	ld	r18, Z
     46e:	2b 7f       	andi	r18, 0xFB	; 251
     470:	fc 01       	movw	r30, r24
     472:	20 83       	st	Z, r18
     474:	80 e0       	ldi	r24, 0x00	; 0
     476:	90 e0       	ldi	r25, 0x00	; 0
     478:	a0 e8       	ldi	r26, 0x80	; 128
     47a:	bf e3       	ldi	r27, 0x3F	; 63
     47c:	89 87       	std	Y+9, r24	; 0x09
     47e:	9a 87       	std	Y+10, r25	; 0x0a
     480:	ab 87       	std	Y+11, r26	; 0x0b
     482:	bc 87       	std	Y+12, r27	; 0x0c
     484:	8e 01       	movw	r16, r28
     486:	0d 5a       	subi	r16, 0xAD	; 173
     488:	1f 4f       	sbci	r17, 0xFF	; 255
     48a:	26 e6       	ldi	r18, 0x66	; 102
     48c:	36 e6       	ldi	r19, 0x66	; 102
     48e:	46 e6       	ldi	r20, 0x66	; 102
     490:	55 e4       	ldi	r21, 0x45	; 69
     492:	69 85       	ldd	r22, Y+9	; 0x09
     494:	7a 85       	ldd	r23, Y+10	; 0x0a
     496:	8b 85       	ldd	r24, Y+11	; 0x0b
     498:	9c 85       	ldd	r25, Y+12	; 0x0c
     49a:	0e 94 f9 18 	call	0x31f2	; 0x31f2 <__mulsf3>
     49e:	dc 01       	movw	r26, r24
     4a0:	cb 01       	movw	r24, r22
     4a2:	f8 01       	movw	r30, r16
     4a4:	80 83       	st	Z, r24
     4a6:	91 83       	std	Z+1, r25	; 0x01
     4a8:	a2 83       	std	Z+2, r26	; 0x02
     4aa:	b3 83       	std	Z+3, r27	; 0x03
     4ac:	ce 01       	movw	r24, r28
     4ae:	8d 5a       	subi	r24, 0xAD	; 173
     4b0:	9f 4f       	sbci	r25, 0xFF	; 255
     4b2:	20 e0       	ldi	r18, 0x00	; 0
     4b4:	30 e0       	ldi	r19, 0x00	; 0
     4b6:	40 e8       	ldi	r20, 0x80	; 128
     4b8:	5f e3       	ldi	r21, 0x3F	; 63
     4ba:	fc 01       	movw	r30, r24
     4bc:	60 81       	ld	r22, Z
     4be:	71 81       	ldd	r23, Z+1	; 0x01
     4c0:	82 81       	ldd	r24, Z+2	; 0x02
     4c2:	93 81       	ldd	r25, Z+3	; 0x03
     4c4:	0e 94 ab 17 	call	0x2f56	; 0x2f56 <__cmpsf2>
     4c8:	88 23       	and	r24, r24
     4ca:	4c f4       	brge	.+18     	; 0x4de <__LOCK_REGION_LENGTH__+0xde>
     4cc:	ce 01       	movw	r24, r28
     4ce:	89 5a       	subi	r24, 0xA9	; 169
     4d0:	9f 4f       	sbci	r25, 0xFF	; 255
     4d2:	21 e0       	ldi	r18, 0x01	; 1
     4d4:	30 e0       	ldi	r19, 0x00	; 0
     4d6:	fc 01       	movw	r30, r24
     4d8:	31 83       	std	Z+1, r19	; 0x01
     4da:	20 83       	st	Z, r18
     4dc:	69 c0       	rjmp	.+210    	; 0x5b0 <__LOCK_REGION_LENGTH__+0x1b0>
     4de:	ce 01       	movw	r24, r28
     4e0:	8d 5a       	subi	r24, 0xAD	; 173
     4e2:	9f 4f       	sbci	r25, 0xFF	; 255
     4e4:	20 e0       	ldi	r18, 0x00	; 0
     4e6:	3f ef       	ldi	r19, 0xFF	; 255
     4e8:	4f e7       	ldi	r20, 0x7F	; 127
     4ea:	57 e4       	ldi	r21, 0x47	; 71
     4ec:	fc 01       	movw	r30, r24
     4ee:	60 81       	ld	r22, Z
     4f0:	71 81       	ldd	r23, Z+1	; 0x01
     4f2:	82 81       	ldd	r24, Z+2	; 0x02
     4f4:	93 81       	ldd	r25, Z+3	; 0x03
     4f6:	0e 94 f5 18 	call	0x31ea	; 0x31ea <__gesf2>
     4fa:	18 16       	cp	r1, r24
     4fc:	0c f0       	brlt	.+2      	; 0x500 <__LOCK_REGION_LENGTH__+0x100>
     4fe:	46 c0       	rjmp	.+140    	; 0x58c <__LOCK_REGION_LENGTH__+0x18c>
     500:	20 e0       	ldi	r18, 0x00	; 0
     502:	30 e0       	ldi	r19, 0x00	; 0
     504:	40 e2       	ldi	r20, 0x20	; 32
     506:	51 e4       	ldi	r21, 0x41	; 65
     508:	69 85       	ldd	r22, Y+9	; 0x09
     50a:	7a 85       	ldd	r23, Y+10	; 0x0a
     50c:	8b 85       	ldd	r24, Y+11	; 0x0b
     50e:	9c 85       	ldd	r25, Y+12	; 0x0c
     510:	0e 94 f9 18 	call	0x31f2	; 0x31f2 <__mulsf3>
     514:	dc 01       	movw	r26, r24
     516:	cb 01       	movw	r24, r22
     518:	8e 01       	movw	r16, r28
     51a:	09 5a       	subi	r16, 0xA9	; 169
     51c:	1f 4f       	sbci	r17, 0xFF	; 255
     51e:	bc 01       	movw	r22, r24
     520:	cd 01       	movw	r24, r26
     522:	0e 94 17 18 	call	0x302e	; 0x302e <__fixunssfsi>
     526:	dc 01       	movw	r26, r24
     528:	cb 01       	movw	r24, r22
     52a:	f8 01       	movw	r30, r16
     52c:	91 83       	std	Z+1, r25	; 0x01
     52e:	80 83       	st	Z, r24
     530:	24 c0       	rjmp	.+72     	; 0x57a <__LOCK_REGION_LENGTH__+0x17a>
     532:	ce 01       	movw	r24, r28
     534:	87 5a       	subi	r24, 0xA7	; 167
     536:	9f 4f       	sbci	r25, 0xFF	; 255
     538:	20 e7       	ldi	r18, 0x70	; 112
     53a:	31 e0       	ldi	r19, 0x01	; 1
     53c:	fc 01       	movw	r30, r24
     53e:	31 83       	std	Z+1, r19	; 0x01
     540:	20 83       	st	Z, r18
     542:	ce 01       	movw	r24, r28
     544:	87 5a       	subi	r24, 0xA7	; 167
     546:	9f 4f       	sbci	r25, 0xFF	; 255
     548:	fc 01       	movw	r30, r24
     54a:	80 81       	ld	r24, Z
     54c:	91 81       	ldd	r25, Z+1	; 0x01
     54e:	01 97       	sbiw	r24, 0x01	; 1
     550:	f1 f7       	brne	.-4      	; 0x54e <__LOCK_REGION_LENGTH__+0x14e>
     552:	9e 01       	movw	r18, r28
     554:	27 5a       	subi	r18, 0xA7	; 167
     556:	3f 4f       	sbci	r19, 0xFF	; 255
     558:	f9 01       	movw	r30, r18
     55a:	91 83       	std	Z+1, r25	; 0x01
     55c:	80 83       	st	Z, r24
     55e:	ce 01       	movw	r24, r28
     560:	89 5a       	subi	r24, 0xA9	; 169
     562:	9f 4f       	sbci	r25, 0xFF	; 255
     564:	9e 01       	movw	r18, r28
     566:	29 5a       	subi	r18, 0xA9	; 169
     568:	3f 4f       	sbci	r19, 0xFF	; 255
     56a:	f9 01       	movw	r30, r18
     56c:	20 81       	ld	r18, Z
     56e:	31 81       	ldd	r19, Z+1	; 0x01
     570:	21 50       	subi	r18, 0x01	; 1
     572:	31 09       	sbc	r19, r1
     574:	fc 01       	movw	r30, r24
     576:	31 83       	std	Z+1, r19	; 0x01
     578:	20 83       	st	Z, r18
     57a:	ce 01       	movw	r24, r28
     57c:	89 5a       	subi	r24, 0xA9	; 169
     57e:	9f 4f       	sbci	r25, 0xFF	; 255
     580:	fc 01       	movw	r30, r24
     582:	80 81       	ld	r24, Z
     584:	91 81       	ldd	r25, Z+1	; 0x01
     586:	89 2b       	or	r24, r25
     588:	a1 f6       	brne	.-88     	; 0x532 <__LOCK_REGION_LENGTH__+0x132>
     58a:	2c c0       	rjmp	.+88     	; 0x5e4 <__LOCK_REGION_LENGTH__+0x1e4>
     58c:	8e 01       	movw	r16, r28
     58e:	09 5a       	subi	r16, 0xA9	; 169
     590:	1f 4f       	sbci	r17, 0xFF	; 255
     592:	ce 01       	movw	r24, r28
     594:	8d 5a       	subi	r24, 0xAD	; 173
     596:	9f 4f       	sbci	r25, 0xFF	; 255
     598:	fc 01       	movw	r30, r24
     59a:	60 81       	ld	r22, Z
     59c:	71 81       	ldd	r23, Z+1	; 0x01
     59e:	82 81       	ldd	r24, Z+2	; 0x02
     5a0:	93 81       	ldd	r25, Z+3	; 0x03
     5a2:	0e 94 17 18 	call	0x302e	; 0x302e <__fixunssfsi>
     5a6:	dc 01       	movw	r26, r24
     5a8:	cb 01       	movw	r24, r22
     5aa:	f8 01       	movw	r30, r16
     5ac:	91 83       	std	Z+1, r25	; 0x01
     5ae:	80 83       	st	Z, r24
     5b0:	ce 01       	movw	r24, r28
     5b2:	85 5a       	subi	r24, 0xA5	; 165
     5b4:	9f 4f       	sbci	r25, 0xFF	; 255
     5b6:	9e 01       	movw	r18, r28
     5b8:	29 5a       	subi	r18, 0xA9	; 169
     5ba:	3f 4f       	sbci	r19, 0xFF	; 255
     5bc:	f9 01       	movw	r30, r18
     5be:	20 81       	ld	r18, Z
     5c0:	31 81       	ldd	r19, Z+1	; 0x01
     5c2:	fc 01       	movw	r30, r24
     5c4:	31 83       	std	Z+1, r19	; 0x01
     5c6:	20 83       	st	Z, r18
     5c8:	ce 01       	movw	r24, r28
     5ca:	85 5a       	subi	r24, 0xA5	; 165
     5cc:	9f 4f       	sbci	r25, 0xFF	; 255
     5ce:	fc 01       	movw	r30, r24
     5d0:	80 81       	ld	r24, Z
     5d2:	91 81       	ldd	r25, Z+1	; 0x01
     5d4:	01 97       	sbiw	r24, 0x01	; 1
     5d6:	f1 f7       	brne	.-4      	; 0x5d4 <__LOCK_REGION_LENGTH__+0x1d4>
     5d8:	9e 01       	movw	r18, r28
     5da:	25 5a       	subi	r18, 0xA5	; 165
     5dc:	3f 4f       	sbci	r19, 0xFF	; 255
     5de:	f9 01       	movw	r30, r18
     5e0:	91 83       	std	Z+1, r25	; 0x01
     5e2:	80 83       	st	Z, r24
     5e4:	88 e2       	ldi	r24, 0x28	; 40
     5e6:	90 e0       	ldi	r25, 0x00	; 0
     5e8:	28 e2       	ldi	r18, 0x28	; 40
     5ea:	30 e0       	ldi	r19, 0x00	; 0
     5ec:	f9 01       	movw	r30, r18
     5ee:	20 81       	ld	r18, Z
     5f0:	2e 7f       	andi	r18, 0xFE	; 254
     5f2:	fc 01       	movw	r30, r24
     5f4:	20 83       	st	Z, r18
     5f6:	88 e2       	ldi	r24, 0x28	; 40
     5f8:	90 e0       	ldi	r25, 0x00	; 0
     5fa:	28 e2       	ldi	r18, 0x28	; 40
     5fc:	30 e0       	ldi	r19, 0x00	; 0
     5fe:	f9 01       	movw	r30, r18
     600:	20 81       	ld	r18, Z
     602:	2d 7f       	andi	r18, 0xFD	; 253
     604:	fc 01       	movw	r30, r24
     606:	20 83       	st	Z, r18
     608:	88 e2       	ldi	r24, 0x28	; 40
     60a:	90 e0       	ldi	r25, 0x00	; 0
     60c:	20 e3       	ldi	r18, 0x30	; 48
     60e:	fc 01       	movw	r30, r24
     610:	20 83       	st	Z, r18
     612:	88 e2       	ldi	r24, 0x28	; 40
     614:	90 e0       	ldi	r25, 0x00	; 0
     616:	28 e2       	ldi	r18, 0x28	; 40
     618:	30 e0       	ldi	r19, 0x00	; 0
     61a:	f9 01       	movw	r30, r18
     61c:	20 81       	ld	r18, Z
     61e:	24 60       	ori	r18, 0x04	; 4
     620:	fc 01       	movw	r30, r24
     622:	20 83       	st	Z, r18
     624:	80 e0       	ldi	r24, 0x00	; 0
     626:	90 e0       	ldi	r25, 0x00	; 0
     628:	a0 ea       	ldi	r26, 0xA0	; 160
     62a:	b0 e4       	ldi	r27, 0x40	; 64
     62c:	8d 87       	std	Y+13, r24	; 0x0d
     62e:	9e 87       	std	Y+14, r25	; 0x0e
     630:	af 87       	std	Y+15, r26	; 0x0f
     632:	b8 8b       	std	Y+16, r27	; 0x10
     634:	8e 01       	movw	r16, r28
     636:	07 5b       	subi	r16, 0xB7	; 183
     638:	1f 4f       	sbci	r17, 0xFF	; 255
     63a:	26 e6       	ldi	r18, 0x66	; 102
     63c:	36 e6       	ldi	r19, 0x66	; 102
     63e:	46 e6       	ldi	r20, 0x66	; 102
     640:	55 e4       	ldi	r21, 0x45	; 69
     642:	6d 85       	ldd	r22, Y+13	; 0x0d
     644:	7e 85       	ldd	r23, Y+14	; 0x0e
     646:	8f 85       	ldd	r24, Y+15	; 0x0f
     648:	98 89       	ldd	r25, Y+16	; 0x10
     64a:	0e 94 f9 18 	call	0x31f2	; 0x31f2 <__mulsf3>
     64e:	dc 01       	movw	r26, r24
     650:	cb 01       	movw	r24, r22
     652:	f8 01       	movw	r30, r16
     654:	80 83       	st	Z, r24
     656:	91 83       	std	Z+1, r25	; 0x01
     658:	a2 83       	std	Z+2, r26	; 0x02
     65a:	b3 83       	std	Z+3, r27	; 0x03
     65c:	ce 01       	movw	r24, r28
     65e:	87 5b       	subi	r24, 0xB7	; 183
     660:	9f 4f       	sbci	r25, 0xFF	; 255
     662:	20 e0       	ldi	r18, 0x00	; 0
     664:	30 e0       	ldi	r19, 0x00	; 0
     666:	40 e8       	ldi	r20, 0x80	; 128
     668:	5f e3       	ldi	r21, 0x3F	; 63
     66a:	fc 01       	movw	r30, r24
     66c:	60 81       	ld	r22, Z
     66e:	71 81       	ldd	r23, Z+1	; 0x01
     670:	82 81       	ldd	r24, Z+2	; 0x02
     672:	93 81       	ldd	r25, Z+3	; 0x03
     674:	0e 94 ab 17 	call	0x2f56	; 0x2f56 <__cmpsf2>
     678:	88 23       	and	r24, r24
     67a:	4c f4       	brge	.+18     	; 0x68e <__LOCK_REGION_LENGTH__+0x28e>
     67c:	ce 01       	movw	r24, r28
     67e:	83 5b       	subi	r24, 0xB3	; 179
     680:	9f 4f       	sbci	r25, 0xFF	; 255
     682:	21 e0       	ldi	r18, 0x01	; 1
     684:	30 e0       	ldi	r19, 0x00	; 0
     686:	fc 01       	movw	r30, r24
     688:	31 83       	std	Z+1, r19	; 0x01
     68a:	20 83       	st	Z, r18
     68c:	69 c0       	rjmp	.+210    	; 0x760 <__LOCK_REGION_LENGTH__+0x360>
     68e:	ce 01       	movw	r24, r28
     690:	87 5b       	subi	r24, 0xB7	; 183
     692:	9f 4f       	sbci	r25, 0xFF	; 255
     694:	20 e0       	ldi	r18, 0x00	; 0
     696:	3f ef       	ldi	r19, 0xFF	; 255
     698:	4f e7       	ldi	r20, 0x7F	; 127
     69a:	57 e4       	ldi	r21, 0x47	; 71
     69c:	fc 01       	movw	r30, r24
     69e:	60 81       	ld	r22, Z
     6a0:	71 81       	ldd	r23, Z+1	; 0x01
     6a2:	82 81       	ldd	r24, Z+2	; 0x02
     6a4:	93 81       	ldd	r25, Z+3	; 0x03
     6a6:	0e 94 f5 18 	call	0x31ea	; 0x31ea <__gesf2>
     6aa:	18 16       	cp	r1, r24
     6ac:	0c f0       	brlt	.+2      	; 0x6b0 <__LOCK_REGION_LENGTH__+0x2b0>
     6ae:	46 c0       	rjmp	.+140    	; 0x73c <__LOCK_REGION_LENGTH__+0x33c>
     6b0:	20 e0       	ldi	r18, 0x00	; 0
     6b2:	30 e0       	ldi	r19, 0x00	; 0
     6b4:	40 e2       	ldi	r20, 0x20	; 32
     6b6:	51 e4       	ldi	r21, 0x41	; 65
     6b8:	6d 85       	ldd	r22, Y+13	; 0x0d
     6ba:	7e 85       	ldd	r23, Y+14	; 0x0e
     6bc:	8f 85       	ldd	r24, Y+15	; 0x0f
     6be:	98 89       	ldd	r25, Y+16	; 0x10
     6c0:	0e 94 f9 18 	call	0x31f2	; 0x31f2 <__mulsf3>
     6c4:	dc 01       	movw	r26, r24
     6c6:	cb 01       	movw	r24, r22
     6c8:	8e 01       	movw	r16, r28
     6ca:	03 5b       	subi	r16, 0xB3	; 179
     6cc:	1f 4f       	sbci	r17, 0xFF	; 255
     6ce:	bc 01       	movw	r22, r24
     6d0:	cd 01       	movw	r24, r26
     6d2:	0e 94 17 18 	call	0x302e	; 0x302e <__fixunssfsi>
     6d6:	dc 01       	movw	r26, r24
     6d8:	cb 01       	movw	r24, r22
     6da:	f8 01       	movw	r30, r16
     6dc:	91 83       	std	Z+1, r25	; 0x01
     6de:	80 83       	st	Z, r24
     6e0:	24 c0       	rjmp	.+72     	; 0x72a <__LOCK_REGION_LENGTH__+0x32a>
     6e2:	ce 01       	movw	r24, r28
     6e4:	81 5b       	subi	r24, 0xB1	; 177
     6e6:	9f 4f       	sbci	r25, 0xFF	; 255
     6e8:	20 e7       	ldi	r18, 0x70	; 112
     6ea:	31 e0       	ldi	r19, 0x01	; 1
     6ec:	fc 01       	movw	r30, r24
     6ee:	31 83       	std	Z+1, r19	; 0x01
     6f0:	20 83       	st	Z, r18
     6f2:	ce 01       	movw	r24, r28
     6f4:	81 5b       	subi	r24, 0xB1	; 177
     6f6:	9f 4f       	sbci	r25, 0xFF	; 255
     6f8:	fc 01       	movw	r30, r24
     6fa:	80 81       	ld	r24, Z
     6fc:	91 81       	ldd	r25, Z+1	; 0x01
     6fe:	01 97       	sbiw	r24, 0x01	; 1
     700:	f1 f7       	brne	.-4      	; 0x6fe <__LOCK_REGION_LENGTH__+0x2fe>
     702:	9e 01       	movw	r18, r28
     704:	21 5b       	subi	r18, 0xB1	; 177
     706:	3f 4f       	sbci	r19, 0xFF	; 255
     708:	f9 01       	movw	r30, r18
     70a:	91 83       	std	Z+1, r25	; 0x01
     70c:	80 83       	st	Z, r24
     70e:	ce 01       	movw	r24, r28
     710:	83 5b       	subi	r24, 0xB3	; 179
     712:	9f 4f       	sbci	r25, 0xFF	; 255
     714:	9e 01       	movw	r18, r28
     716:	23 5b       	subi	r18, 0xB3	; 179
     718:	3f 4f       	sbci	r19, 0xFF	; 255
     71a:	f9 01       	movw	r30, r18
     71c:	20 81       	ld	r18, Z
     71e:	31 81       	ldd	r19, Z+1	; 0x01
     720:	21 50       	subi	r18, 0x01	; 1
     722:	31 09       	sbc	r19, r1
     724:	fc 01       	movw	r30, r24
     726:	31 83       	std	Z+1, r19	; 0x01
     728:	20 83       	st	Z, r18
     72a:	ce 01       	movw	r24, r28
     72c:	83 5b       	subi	r24, 0xB3	; 179
     72e:	9f 4f       	sbci	r25, 0xFF	; 255
     730:	fc 01       	movw	r30, r24
     732:	80 81       	ld	r24, Z
     734:	91 81       	ldd	r25, Z+1	; 0x01
     736:	89 2b       	or	r24, r25
     738:	a1 f6       	brne	.-88     	; 0x6e2 <__LOCK_REGION_LENGTH__+0x2e2>
     73a:	2c c0       	rjmp	.+88     	; 0x794 <__LOCK_REGION_LENGTH__+0x394>
     73c:	8e 01       	movw	r16, r28
     73e:	03 5b       	subi	r16, 0xB3	; 179
     740:	1f 4f       	sbci	r17, 0xFF	; 255
     742:	ce 01       	movw	r24, r28
     744:	87 5b       	subi	r24, 0xB7	; 183
     746:	9f 4f       	sbci	r25, 0xFF	; 255
     748:	fc 01       	movw	r30, r24
     74a:	60 81       	ld	r22, Z
     74c:	71 81       	ldd	r23, Z+1	; 0x01
     74e:	82 81       	ldd	r24, Z+2	; 0x02
     750:	93 81       	ldd	r25, Z+3	; 0x03
     752:	0e 94 17 18 	call	0x302e	; 0x302e <__fixunssfsi>
     756:	dc 01       	movw	r26, r24
     758:	cb 01       	movw	r24, r22
     75a:	f8 01       	movw	r30, r16
     75c:	91 83       	std	Z+1, r25	; 0x01
     75e:	80 83       	st	Z, r24
     760:	ce 01       	movw	r24, r28
     762:	8f 5a       	subi	r24, 0xAF	; 175
     764:	9f 4f       	sbci	r25, 0xFF	; 255
     766:	9e 01       	movw	r18, r28
     768:	23 5b       	subi	r18, 0xB3	; 179
     76a:	3f 4f       	sbci	r19, 0xFF	; 255
     76c:	f9 01       	movw	r30, r18
     76e:	20 81       	ld	r18, Z
     770:	31 81       	ldd	r19, Z+1	; 0x01
     772:	fc 01       	movw	r30, r24
     774:	31 83       	std	Z+1, r19	; 0x01
     776:	20 83       	st	Z, r18
     778:	ce 01       	movw	r24, r28
     77a:	8f 5a       	subi	r24, 0xAF	; 175
     77c:	9f 4f       	sbci	r25, 0xFF	; 255
     77e:	fc 01       	movw	r30, r24
     780:	80 81       	ld	r24, Z
     782:	91 81       	ldd	r25, Z+1	; 0x01
     784:	01 97       	sbiw	r24, 0x01	; 1
     786:	f1 f7       	brne	.-4      	; 0x784 <__LOCK_REGION_LENGTH__+0x384>
     788:	9e 01       	movw	r18, r28
     78a:	2f 5a       	subi	r18, 0xAF	; 175
     78c:	3f 4f       	sbci	r19, 0xFF	; 255
     78e:	f9 01       	movw	r30, r18
     790:	91 83       	std	Z+1, r25	; 0x01
     792:	80 83       	st	Z, r24
     794:	88 e2       	ldi	r24, 0x28	; 40
     796:	90 e0       	ldi	r25, 0x00	; 0
     798:	28 e2       	ldi	r18, 0x28	; 40
     79a:	30 e0       	ldi	r19, 0x00	; 0
     79c:	f9 01       	movw	r30, r18
     79e:	20 81       	ld	r18, Z
     7a0:	2b 7f       	andi	r18, 0xFB	; 251
     7a2:	fc 01       	movw	r30, r24
     7a4:	20 83       	st	Z, r18
     7a6:	80 e0       	ldi	r24, 0x00	; 0
     7a8:	90 e0       	ldi	r25, 0x00	; 0
     7aa:	a0 e8       	ldi	r26, 0x80	; 128
     7ac:	bf e3       	ldi	r27, 0x3F	; 63
     7ae:	89 8b       	std	Y+17, r24	; 0x11
     7b0:	9a 8b       	std	Y+18, r25	; 0x12
     7b2:	ab 8b       	std	Y+19, r26	; 0x13
     7b4:	bc 8b       	std	Y+20, r27	; 0x14
     7b6:	8e 01       	movw	r16, r28
     7b8:	01 5c       	subi	r16, 0xC1	; 193
     7ba:	1f 4f       	sbci	r17, 0xFF	; 255
     7bc:	26 e6       	ldi	r18, 0x66	; 102
     7be:	36 e6       	ldi	r19, 0x66	; 102
     7c0:	46 e6       	ldi	r20, 0x66	; 102
     7c2:	55 e4       	ldi	r21, 0x45	; 69
     7c4:	69 89       	ldd	r22, Y+17	; 0x11
     7c6:	7a 89       	ldd	r23, Y+18	; 0x12
     7c8:	8b 89       	ldd	r24, Y+19	; 0x13
     7ca:	9c 89       	ldd	r25, Y+20	; 0x14
     7cc:	0e 94 f9 18 	call	0x31f2	; 0x31f2 <__mulsf3>
     7d0:	dc 01       	movw	r26, r24
     7d2:	cb 01       	movw	r24, r22
     7d4:	f8 01       	movw	r30, r16
     7d6:	80 83       	st	Z, r24
     7d8:	91 83       	std	Z+1, r25	; 0x01
     7da:	a2 83       	std	Z+2, r26	; 0x02
     7dc:	b3 83       	std	Z+3, r27	; 0x03
     7de:	ce 01       	movw	r24, r28
     7e0:	cf 96       	adiw	r24, 0x3f	; 63
     7e2:	20 e0       	ldi	r18, 0x00	; 0
     7e4:	30 e0       	ldi	r19, 0x00	; 0
     7e6:	40 e8       	ldi	r20, 0x80	; 128
     7e8:	5f e3       	ldi	r21, 0x3F	; 63
     7ea:	fc 01       	movw	r30, r24
     7ec:	60 81       	ld	r22, Z
     7ee:	71 81       	ldd	r23, Z+1	; 0x01
     7f0:	82 81       	ldd	r24, Z+2	; 0x02
     7f2:	93 81       	ldd	r25, Z+3	; 0x03
     7f4:	0e 94 ab 17 	call	0x2f56	; 0x2f56 <__cmpsf2>
     7f8:	88 23       	and	r24, r24
     7fa:	4c f4       	brge	.+18     	; 0x80e <__LOCK_REGION_LENGTH__+0x40e>
     7fc:	ce 01       	movw	r24, r28
     7fe:	8d 5b       	subi	r24, 0xBD	; 189
     800:	9f 4f       	sbci	r25, 0xFF	; 255
     802:	21 e0       	ldi	r18, 0x01	; 1
     804:	30 e0       	ldi	r19, 0x00	; 0
     806:	fc 01       	movw	r30, r24
     808:	31 83       	std	Z+1, r19	; 0x01
     80a:	20 83       	st	Z, r18
     80c:	67 c0       	rjmp	.+206    	; 0x8dc <__LOCK_REGION_LENGTH__+0x4dc>
     80e:	ce 01       	movw	r24, r28
     810:	cf 96       	adiw	r24, 0x3f	; 63
     812:	20 e0       	ldi	r18, 0x00	; 0
     814:	3f ef       	ldi	r19, 0xFF	; 255
     816:	4f e7       	ldi	r20, 0x7F	; 127
     818:	57 e4       	ldi	r21, 0x47	; 71
     81a:	fc 01       	movw	r30, r24
     81c:	60 81       	ld	r22, Z
     81e:	71 81       	ldd	r23, Z+1	; 0x01
     820:	82 81       	ldd	r24, Z+2	; 0x02
     822:	93 81       	ldd	r25, Z+3	; 0x03
     824:	0e 94 f5 18 	call	0x31ea	; 0x31ea <__gesf2>
     828:	18 16       	cp	r1, r24
     82a:	0c f0       	brlt	.+2      	; 0x82e <__LOCK_REGION_LENGTH__+0x42e>
     82c:	46 c0       	rjmp	.+140    	; 0x8ba <__LOCK_REGION_LENGTH__+0x4ba>
     82e:	20 e0       	ldi	r18, 0x00	; 0
     830:	30 e0       	ldi	r19, 0x00	; 0
     832:	40 e2       	ldi	r20, 0x20	; 32
     834:	51 e4       	ldi	r21, 0x41	; 65
     836:	69 89       	ldd	r22, Y+17	; 0x11
     838:	7a 89       	ldd	r23, Y+18	; 0x12
     83a:	8b 89       	ldd	r24, Y+19	; 0x13
     83c:	9c 89       	ldd	r25, Y+20	; 0x14
     83e:	0e 94 f9 18 	call	0x31f2	; 0x31f2 <__mulsf3>
     842:	dc 01       	movw	r26, r24
     844:	cb 01       	movw	r24, r22
     846:	8e 01       	movw	r16, r28
     848:	0d 5b       	subi	r16, 0xBD	; 189
     84a:	1f 4f       	sbci	r17, 0xFF	; 255
     84c:	bc 01       	movw	r22, r24
     84e:	cd 01       	movw	r24, r26
     850:	0e 94 17 18 	call	0x302e	; 0x302e <__fixunssfsi>
     854:	dc 01       	movw	r26, r24
     856:	cb 01       	movw	r24, r22
     858:	f8 01       	movw	r30, r16
     85a:	91 83       	std	Z+1, r25	; 0x01
     85c:	80 83       	st	Z, r24
     85e:	24 c0       	rjmp	.+72     	; 0x8a8 <__LOCK_REGION_LENGTH__+0x4a8>
     860:	ce 01       	movw	r24, r28
     862:	8b 5b       	subi	r24, 0xBB	; 187
     864:	9f 4f       	sbci	r25, 0xFF	; 255
     866:	20 e7       	ldi	r18, 0x70	; 112
     868:	31 e0       	ldi	r19, 0x01	; 1
     86a:	fc 01       	movw	r30, r24
     86c:	31 83       	std	Z+1, r19	; 0x01
     86e:	20 83       	st	Z, r18
     870:	ce 01       	movw	r24, r28
     872:	8b 5b       	subi	r24, 0xBB	; 187
     874:	9f 4f       	sbci	r25, 0xFF	; 255
     876:	fc 01       	movw	r30, r24
     878:	80 81       	ld	r24, Z
     87a:	91 81       	ldd	r25, Z+1	; 0x01
     87c:	01 97       	sbiw	r24, 0x01	; 1
     87e:	f1 f7       	brne	.-4      	; 0x87c <__LOCK_REGION_LENGTH__+0x47c>
     880:	9e 01       	movw	r18, r28
     882:	2b 5b       	subi	r18, 0xBB	; 187
     884:	3f 4f       	sbci	r19, 0xFF	; 255
     886:	f9 01       	movw	r30, r18
     888:	91 83       	std	Z+1, r25	; 0x01
     88a:	80 83       	st	Z, r24
     88c:	ce 01       	movw	r24, r28
     88e:	8d 5b       	subi	r24, 0xBD	; 189
     890:	9f 4f       	sbci	r25, 0xFF	; 255
     892:	9e 01       	movw	r18, r28
     894:	2d 5b       	subi	r18, 0xBD	; 189
     896:	3f 4f       	sbci	r19, 0xFF	; 255
     898:	f9 01       	movw	r30, r18
     89a:	20 81       	ld	r18, Z
     89c:	31 81       	ldd	r19, Z+1	; 0x01
     89e:	21 50       	subi	r18, 0x01	; 1
     8a0:	31 09       	sbc	r19, r1
     8a2:	fc 01       	movw	r30, r24
     8a4:	31 83       	std	Z+1, r19	; 0x01
     8a6:	20 83       	st	Z, r18
     8a8:	ce 01       	movw	r24, r28
     8aa:	8d 5b       	subi	r24, 0xBD	; 189
     8ac:	9f 4f       	sbci	r25, 0xFF	; 255
     8ae:	fc 01       	movw	r30, r24
     8b0:	80 81       	ld	r24, Z
     8b2:	91 81       	ldd	r25, Z+1	; 0x01
     8b4:	89 2b       	or	r24, r25
     8b6:	a1 f6       	brne	.-88     	; 0x860 <__LOCK_REGION_LENGTH__+0x460>
     8b8:	2b c0       	rjmp	.+86     	; 0x910 <__LOCK_REGION_LENGTH__+0x510>
     8ba:	8e 01       	movw	r16, r28
     8bc:	0d 5b       	subi	r16, 0xBD	; 189
     8be:	1f 4f       	sbci	r17, 0xFF	; 255
     8c0:	ce 01       	movw	r24, r28
     8c2:	cf 96       	adiw	r24, 0x3f	; 63
     8c4:	fc 01       	movw	r30, r24
     8c6:	60 81       	ld	r22, Z
     8c8:	71 81       	ldd	r23, Z+1	; 0x01
     8ca:	82 81       	ldd	r24, Z+2	; 0x02
     8cc:	93 81       	ldd	r25, Z+3	; 0x03
     8ce:	0e 94 17 18 	call	0x302e	; 0x302e <__fixunssfsi>
     8d2:	dc 01       	movw	r26, r24
     8d4:	cb 01       	movw	r24, r22
     8d6:	f8 01       	movw	r30, r16
     8d8:	91 83       	std	Z+1, r25	; 0x01
     8da:	80 83       	st	Z, r24
     8dc:	ce 01       	movw	r24, r28
     8de:	89 5b       	subi	r24, 0xB9	; 185
     8e0:	9f 4f       	sbci	r25, 0xFF	; 255
     8e2:	9e 01       	movw	r18, r28
     8e4:	2d 5b       	subi	r18, 0xBD	; 189
     8e6:	3f 4f       	sbci	r19, 0xFF	; 255
     8e8:	f9 01       	movw	r30, r18
     8ea:	20 81       	ld	r18, Z
     8ec:	31 81       	ldd	r19, Z+1	; 0x01
     8ee:	fc 01       	movw	r30, r24
     8f0:	31 83       	std	Z+1, r19	; 0x01
     8f2:	20 83       	st	Z, r18
     8f4:	ce 01       	movw	r24, r28
     8f6:	89 5b       	subi	r24, 0xB9	; 185
     8f8:	9f 4f       	sbci	r25, 0xFF	; 255
     8fa:	fc 01       	movw	r30, r24
     8fc:	80 81       	ld	r24, Z
     8fe:	91 81       	ldd	r25, Z+1	; 0x01
     900:	01 97       	sbiw	r24, 0x01	; 1
     902:	f1 f7       	brne	.-4      	; 0x900 <__LOCK_REGION_LENGTH__+0x500>
     904:	9e 01       	movw	r18, r28
     906:	29 5b       	subi	r18, 0xB9	; 185
     908:	3f 4f       	sbci	r19, 0xFF	; 255
     90a:	f9 01       	movw	r30, r18
     90c:	91 83       	std	Z+1, r25	; 0x01
     90e:	80 83       	st	Z, r24
     910:	88 e2       	ldi	r24, 0x28	; 40
     912:	90 e0       	ldi	r25, 0x00	; 0
     914:	28 e2       	ldi	r18, 0x28	; 40
     916:	30 e0       	ldi	r19, 0x00	; 0
     918:	f9 01       	movw	r30, r18
     91a:	20 81       	ld	r18, Z
     91c:	2e 7f       	andi	r18, 0xFE	; 254
     91e:	fc 01       	movw	r30, r24
     920:	20 83       	st	Z, r18
     922:	88 e2       	ldi	r24, 0x28	; 40
     924:	90 e0       	ldi	r25, 0x00	; 0
     926:	28 e2       	ldi	r18, 0x28	; 40
     928:	30 e0       	ldi	r19, 0x00	; 0
     92a:	f9 01       	movw	r30, r18
     92c:	20 81       	ld	r18, Z
     92e:	2d 7f       	andi	r18, 0xFD	; 253
     930:	fc 01       	movw	r30, r24
     932:	20 83       	st	Z, r18
     934:	88 e2       	ldi	r24, 0x28	; 40
     936:	90 e0       	ldi	r25, 0x00	; 0
     938:	20 e3       	ldi	r18, 0x30	; 48
     93a:	fc 01       	movw	r30, r24
     93c:	20 83       	st	Z, r18
     93e:	88 e2       	ldi	r24, 0x28	; 40
     940:	90 e0       	ldi	r25, 0x00	; 0
     942:	28 e2       	ldi	r18, 0x28	; 40
     944:	30 e0       	ldi	r19, 0x00	; 0
     946:	f9 01       	movw	r30, r18
     948:	20 81       	ld	r18, Z
     94a:	24 60       	ori	r18, 0x04	; 4
     94c:	fc 01       	movw	r30, r24
     94e:	20 83       	st	Z, r18
     950:	80 e0       	ldi	r24, 0x00	; 0
     952:	90 e0       	ldi	r25, 0x00	; 0
     954:	a0 ea       	ldi	r26, 0xA0	; 160
     956:	b0 e4       	ldi	r27, 0x40	; 64
     958:	8d 8b       	std	Y+21, r24	; 0x15
     95a:	9e 8b       	std	Y+22, r25	; 0x16
     95c:	af 8b       	std	Y+23, r26	; 0x17
     95e:	b8 8f       	std	Y+24, r27	; 0x18
     960:	26 e6       	ldi	r18, 0x66	; 102
     962:	36 e6       	ldi	r19, 0x66	; 102
     964:	46 e6       	ldi	r20, 0x66	; 102
     966:	55 e4       	ldi	r21, 0x45	; 69
     968:	6d 89       	ldd	r22, Y+21	; 0x15
     96a:	7e 89       	ldd	r23, Y+22	; 0x16
     96c:	8f 89       	ldd	r24, Y+23	; 0x17
     96e:	98 8d       	ldd	r25, Y+24	; 0x18
     970:	0e 94 f9 18 	call	0x31f2	; 0x31f2 <__mulsf3>
     974:	dc 01       	movw	r26, r24
     976:	cb 01       	movw	r24, r22
     978:	8d ab       	std	Y+53, r24	; 0x35
     97a:	9e ab       	std	Y+54, r25	; 0x36
     97c:	af ab       	std	Y+55, r26	; 0x37
     97e:	b8 af       	std	Y+56, r27	; 0x38
     980:	20 e0       	ldi	r18, 0x00	; 0
     982:	30 e0       	ldi	r19, 0x00	; 0
     984:	40 e8       	ldi	r20, 0x80	; 128
     986:	5f e3       	ldi	r21, 0x3F	; 63
     988:	6d a9       	ldd	r22, Y+53	; 0x35
     98a:	7e a9       	ldd	r23, Y+54	; 0x36
     98c:	8f a9       	ldd	r24, Y+55	; 0x37
     98e:	98 ad       	ldd	r25, Y+56	; 0x38
     990:	0e 94 ab 17 	call	0x2f56	; 0x2f56 <__cmpsf2>
     994:	88 23       	and	r24, r24
     996:	2c f4       	brge	.+10     	; 0x9a2 <__LOCK_REGION_LENGTH__+0x5a2>
     998:	81 e0       	ldi	r24, 0x01	; 1
     99a:	90 e0       	ldi	r25, 0x00	; 0
     99c:	9a af       	std	Y+58, r25	; 0x3a
     99e:	89 af       	std	Y+57, r24	; 0x39
     9a0:	3f c0       	rjmp	.+126    	; 0xa20 <__LOCK_REGION_LENGTH__+0x620>
     9a2:	20 e0       	ldi	r18, 0x00	; 0
     9a4:	3f ef       	ldi	r19, 0xFF	; 255
     9a6:	4f e7       	ldi	r20, 0x7F	; 127
     9a8:	57 e4       	ldi	r21, 0x47	; 71
     9aa:	6d a9       	ldd	r22, Y+53	; 0x35
     9ac:	7e a9       	ldd	r23, Y+54	; 0x36
     9ae:	8f a9       	ldd	r24, Y+55	; 0x37
     9b0:	98 ad       	ldd	r25, Y+56	; 0x38
     9b2:	0e 94 f5 18 	call	0x31ea	; 0x31ea <__gesf2>
     9b6:	18 16       	cp	r1, r24
     9b8:	4c f5       	brge	.+82     	; 0xa0c <__LOCK_REGION_LENGTH__+0x60c>
     9ba:	20 e0       	ldi	r18, 0x00	; 0
     9bc:	30 e0       	ldi	r19, 0x00	; 0
     9be:	40 e2       	ldi	r20, 0x20	; 32
     9c0:	51 e4       	ldi	r21, 0x41	; 65
     9c2:	6d 89       	ldd	r22, Y+21	; 0x15
     9c4:	7e 89       	ldd	r23, Y+22	; 0x16
     9c6:	8f 89       	ldd	r24, Y+23	; 0x17
     9c8:	98 8d       	ldd	r25, Y+24	; 0x18
     9ca:	0e 94 f9 18 	call	0x31f2	; 0x31f2 <__mulsf3>
     9ce:	dc 01       	movw	r26, r24
     9d0:	cb 01       	movw	r24, r22
     9d2:	bc 01       	movw	r22, r24
     9d4:	cd 01       	movw	r24, r26
     9d6:	0e 94 17 18 	call	0x302e	; 0x302e <__fixunssfsi>
     9da:	dc 01       	movw	r26, r24
     9dc:	cb 01       	movw	r24, r22
     9de:	9a af       	std	Y+58, r25	; 0x3a
     9e0:	89 af       	std	Y+57, r24	; 0x39
     9e2:	0f c0       	rjmp	.+30     	; 0xa02 <__LOCK_REGION_LENGTH__+0x602>
     9e4:	80 e7       	ldi	r24, 0x70	; 112
     9e6:	91 e0       	ldi	r25, 0x01	; 1
     9e8:	9c af       	std	Y+60, r25	; 0x3c
     9ea:	8b af       	std	Y+59, r24	; 0x3b
     9ec:	8b ad       	ldd	r24, Y+59	; 0x3b
     9ee:	9c ad       	ldd	r25, Y+60	; 0x3c
     9f0:	01 97       	sbiw	r24, 0x01	; 1
     9f2:	f1 f7       	brne	.-4      	; 0x9f0 <__LOCK_REGION_LENGTH__+0x5f0>
     9f4:	9c af       	std	Y+60, r25	; 0x3c
     9f6:	8b af       	std	Y+59, r24	; 0x3b
     9f8:	89 ad       	ldd	r24, Y+57	; 0x39
     9fa:	9a ad       	ldd	r25, Y+58	; 0x3a
     9fc:	01 97       	sbiw	r24, 0x01	; 1
     9fe:	9a af       	std	Y+58, r25	; 0x3a
     a00:	89 af       	std	Y+57, r24	; 0x39
     a02:	89 ad       	ldd	r24, Y+57	; 0x39
     a04:	9a ad       	ldd	r25, Y+58	; 0x3a
     a06:	89 2b       	or	r24, r25
     a08:	69 f7       	brne	.-38     	; 0x9e4 <__LOCK_REGION_LENGTH__+0x5e4>
     a0a:	14 c0       	rjmp	.+40     	; 0xa34 <__LOCK_REGION_LENGTH__+0x634>
     a0c:	6d a9       	ldd	r22, Y+53	; 0x35
     a0e:	7e a9       	ldd	r23, Y+54	; 0x36
     a10:	8f a9       	ldd	r24, Y+55	; 0x37
     a12:	98 ad       	ldd	r25, Y+56	; 0x38
     a14:	0e 94 17 18 	call	0x302e	; 0x302e <__fixunssfsi>
     a18:	dc 01       	movw	r26, r24
     a1a:	cb 01       	movw	r24, r22
     a1c:	9a af       	std	Y+58, r25	; 0x3a
     a1e:	89 af       	std	Y+57, r24	; 0x39
     a20:	89 ad       	ldd	r24, Y+57	; 0x39
     a22:	9a ad       	ldd	r25, Y+58	; 0x3a
     a24:	9e af       	std	Y+62, r25	; 0x3e
     a26:	8d af       	std	Y+61, r24	; 0x3d
     a28:	8d ad       	ldd	r24, Y+61	; 0x3d
     a2a:	9e ad       	ldd	r25, Y+62	; 0x3e
     a2c:	01 97       	sbiw	r24, 0x01	; 1
     a2e:	f1 f7       	brne	.-4      	; 0xa2c <__LOCK_REGION_LENGTH__+0x62c>
     a30:	9e af       	std	Y+62, r25	; 0x3e
     a32:	8d af       	std	Y+61, r24	; 0x3d
     a34:	88 e2       	ldi	r24, 0x28	; 40
     a36:	90 e0       	ldi	r25, 0x00	; 0
     a38:	28 e2       	ldi	r18, 0x28	; 40
     a3a:	30 e0       	ldi	r19, 0x00	; 0
     a3c:	f9 01       	movw	r30, r18
     a3e:	20 81       	ld	r18, Z
     a40:	2b 7f       	andi	r18, 0xFB	; 251
     a42:	fc 01       	movw	r30, r24
     a44:	20 83       	st	Z, r18
     a46:	80 e0       	ldi	r24, 0x00	; 0
     a48:	90 e0       	ldi	r25, 0x00	; 0
     a4a:	a0 e8       	ldi	r26, 0x80	; 128
     a4c:	bf e3       	ldi	r27, 0x3F	; 63
     a4e:	89 8f       	std	Y+25, r24	; 0x19
     a50:	9a 8f       	std	Y+26, r25	; 0x1a
     a52:	ab 8f       	std	Y+27, r26	; 0x1b
     a54:	bc 8f       	std	Y+28, r27	; 0x1c
     a56:	26 e6       	ldi	r18, 0x66	; 102
     a58:	36 e6       	ldi	r19, 0x66	; 102
     a5a:	46 e6       	ldi	r20, 0x66	; 102
     a5c:	55 e4       	ldi	r21, 0x45	; 69
     a5e:	69 8d       	ldd	r22, Y+25	; 0x19
     a60:	7a 8d       	ldd	r23, Y+26	; 0x1a
     a62:	8b 8d       	ldd	r24, Y+27	; 0x1b
     a64:	9c 8d       	ldd	r25, Y+28	; 0x1c
     a66:	0e 94 f9 18 	call	0x31f2	; 0x31f2 <__mulsf3>
     a6a:	dc 01       	movw	r26, r24
     a6c:	cb 01       	movw	r24, r22
     a6e:	8b a7       	std	Y+43, r24	; 0x2b
     a70:	9c a7       	std	Y+44, r25	; 0x2c
     a72:	ad a7       	std	Y+45, r26	; 0x2d
     a74:	be a7       	std	Y+46, r27	; 0x2e
     a76:	20 e0       	ldi	r18, 0x00	; 0
     a78:	30 e0       	ldi	r19, 0x00	; 0
     a7a:	40 e8       	ldi	r20, 0x80	; 128
     a7c:	5f e3       	ldi	r21, 0x3F	; 63
     a7e:	6b a5       	ldd	r22, Y+43	; 0x2b
     a80:	7c a5       	ldd	r23, Y+44	; 0x2c
     a82:	8d a5       	ldd	r24, Y+45	; 0x2d
     a84:	9e a5       	ldd	r25, Y+46	; 0x2e
     a86:	0e 94 ab 17 	call	0x2f56	; 0x2f56 <__cmpsf2>
     a8a:	88 23       	and	r24, r24
     a8c:	2c f4       	brge	.+10     	; 0xa98 <__LOCK_REGION_LENGTH__+0x698>
     a8e:	81 e0       	ldi	r24, 0x01	; 1
     a90:	90 e0       	ldi	r25, 0x00	; 0
     a92:	98 ab       	std	Y+48, r25	; 0x30
     a94:	8f a7       	std	Y+47, r24	; 0x2f
     a96:	3f c0       	rjmp	.+126    	; 0xb16 <__LOCK_REGION_LENGTH__+0x716>
     a98:	20 e0       	ldi	r18, 0x00	; 0
     a9a:	3f ef       	ldi	r19, 0xFF	; 255
     a9c:	4f e7       	ldi	r20, 0x7F	; 127
     a9e:	57 e4       	ldi	r21, 0x47	; 71
     aa0:	6b a5       	ldd	r22, Y+43	; 0x2b
     aa2:	7c a5       	ldd	r23, Y+44	; 0x2c
     aa4:	8d a5       	ldd	r24, Y+45	; 0x2d
     aa6:	9e a5       	ldd	r25, Y+46	; 0x2e
     aa8:	0e 94 f5 18 	call	0x31ea	; 0x31ea <__gesf2>
     aac:	18 16       	cp	r1, r24
     aae:	4c f5       	brge	.+82     	; 0xb02 <__LOCK_REGION_LENGTH__+0x702>
     ab0:	20 e0       	ldi	r18, 0x00	; 0
     ab2:	30 e0       	ldi	r19, 0x00	; 0
     ab4:	40 e2       	ldi	r20, 0x20	; 32
     ab6:	51 e4       	ldi	r21, 0x41	; 65
     ab8:	69 8d       	ldd	r22, Y+25	; 0x19
     aba:	7a 8d       	ldd	r23, Y+26	; 0x1a
     abc:	8b 8d       	ldd	r24, Y+27	; 0x1b
     abe:	9c 8d       	ldd	r25, Y+28	; 0x1c
     ac0:	0e 94 f9 18 	call	0x31f2	; 0x31f2 <__mulsf3>
     ac4:	dc 01       	movw	r26, r24
     ac6:	cb 01       	movw	r24, r22
     ac8:	bc 01       	movw	r22, r24
     aca:	cd 01       	movw	r24, r26
     acc:	0e 94 17 18 	call	0x302e	; 0x302e <__fixunssfsi>
     ad0:	dc 01       	movw	r26, r24
     ad2:	cb 01       	movw	r24, r22
     ad4:	98 ab       	std	Y+48, r25	; 0x30
     ad6:	8f a7       	std	Y+47, r24	; 0x2f
     ad8:	0f c0       	rjmp	.+30     	; 0xaf8 <__LOCK_REGION_LENGTH__+0x6f8>
     ada:	80 e7       	ldi	r24, 0x70	; 112
     adc:	91 e0       	ldi	r25, 0x01	; 1
     ade:	9a ab       	std	Y+50, r25	; 0x32
     ae0:	89 ab       	std	Y+49, r24	; 0x31
     ae2:	89 a9       	ldd	r24, Y+49	; 0x31
     ae4:	9a a9       	ldd	r25, Y+50	; 0x32
     ae6:	01 97       	sbiw	r24, 0x01	; 1
     ae8:	f1 f7       	brne	.-4      	; 0xae6 <__LOCK_REGION_LENGTH__+0x6e6>
     aea:	9a ab       	std	Y+50, r25	; 0x32
     aec:	89 ab       	std	Y+49, r24	; 0x31
     aee:	8f a5       	ldd	r24, Y+47	; 0x2f
     af0:	98 a9       	ldd	r25, Y+48	; 0x30
     af2:	01 97       	sbiw	r24, 0x01	; 1
     af4:	98 ab       	std	Y+48, r25	; 0x30
     af6:	8f a7       	std	Y+47, r24	; 0x2f
     af8:	8f a5       	ldd	r24, Y+47	; 0x2f
     afa:	98 a9       	ldd	r25, Y+48	; 0x30
     afc:	89 2b       	or	r24, r25
     afe:	69 f7       	brne	.-38     	; 0xada <__LOCK_REGION_LENGTH__+0x6da>
     b00:	14 c0       	rjmp	.+40     	; 0xb2a <__LOCK_REGION_LENGTH__+0x72a>
     b02:	6b a5       	ldd	r22, Y+43	; 0x2b
     b04:	7c a5       	ldd	r23, Y+44	; 0x2c
     b06:	8d a5       	ldd	r24, Y+45	; 0x2d
     b08:	9e a5       	ldd	r25, Y+46	; 0x2e
     b0a:	0e 94 17 18 	call	0x302e	; 0x302e <__fixunssfsi>
     b0e:	dc 01       	movw	r26, r24
     b10:	cb 01       	movw	r24, r22
     b12:	98 ab       	std	Y+48, r25	; 0x30
     b14:	8f a7       	std	Y+47, r24	; 0x2f
     b16:	8f a5       	ldd	r24, Y+47	; 0x2f
     b18:	98 a9       	ldd	r25, Y+48	; 0x30
     b1a:	9c ab       	std	Y+52, r25	; 0x34
     b1c:	8b ab       	std	Y+51, r24	; 0x33
     b1e:	8b a9       	ldd	r24, Y+51	; 0x33
     b20:	9c a9       	ldd	r25, Y+52	; 0x34
     b22:	01 97       	sbiw	r24, 0x01	; 1
     b24:	f1 f7       	brne	.-4      	; 0xb22 <__LOCK_REGION_LENGTH__+0x722>
     b26:	9c ab       	std	Y+52, r25	; 0x34
     b28:	8b ab       	std	Y+51, r24	; 0x33
     b2a:	88 e2       	ldi	r24, 0x28	; 40
     b2c:	90 e0       	ldi	r25, 0x00	; 0
     b2e:	28 e2       	ldi	r18, 0x28	; 40
     b30:	30 e0       	ldi	r19, 0x00	; 0
     b32:	f9 01       	movw	r30, r18
     b34:	20 81       	ld	r18, Z
     b36:	2e 7f       	andi	r18, 0xFE	; 254
     b38:	fc 01       	movw	r30, r24
     b3a:	20 83       	st	Z, r18
     b3c:	88 e2       	ldi	r24, 0x28	; 40
     b3e:	90 e0       	ldi	r25, 0x00	; 0
     b40:	28 e2       	ldi	r18, 0x28	; 40
     b42:	30 e0       	ldi	r19, 0x00	; 0
     b44:	f9 01       	movw	r30, r18
     b46:	20 81       	ld	r18, Z
     b48:	2d 7f       	andi	r18, 0xFD	; 253
     b4a:	fc 01       	movw	r30, r24
     b4c:	20 83       	st	Z, r18
     b4e:	88 e2       	ldi	r24, 0x28	; 40
     b50:	90 e0       	ldi	r25, 0x00	; 0
     b52:	20 e2       	ldi	r18, 0x20	; 32
     b54:	fc 01       	movw	r30, r24
     b56:	20 83       	st	Z, r18
     b58:	88 e2       	ldi	r24, 0x28	; 40
     b5a:	90 e0       	ldi	r25, 0x00	; 0
     b5c:	28 e2       	ldi	r18, 0x28	; 40
     b5e:	30 e0       	ldi	r19, 0x00	; 0
     b60:	f9 01       	movw	r30, r18
     b62:	20 81       	ld	r18, Z
     b64:	24 60       	ori	r18, 0x04	; 4
     b66:	fc 01       	movw	r30, r24
     b68:	20 83       	st	Z, r18
     b6a:	80 e0       	ldi	r24, 0x00	; 0
     b6c:	90 e0       	ldi	r25, 0x00	; 0
     b6e:	a0 ea       	ldi	r26, 0xA0	; 160
     b70:	b0 e4       	ldi	r27, 0x40	; 64
     b72:	8d 8f       	std	Y+29, r24	; 0x1d
     b74:	9e 8f       	std	Y+30, r25	; 0x1e
     b76:	af 8f       	std	Y+31, r26	; 0x1f
     b78:	b8 a3       	std	Y+32, r27	; 0x20
     b7a:	26 e6       	ldi	r18, 0x66	; 102
     b7c:	36 e6       	ldi	r19, 0x66	; 102
     b7e:	46 e6       	ldi	r20, 0x66	; 102
     b80:	55 e4       	ldi	r21, 0x45	; 69
     b82:	6d 8d       	ldd	r22, Y+29	; 0x1d
     b84:	7e 8d       	ldd	r23, Y+30	; 0x1e
     b86:	8f 8d       	ldd	r24, Y+31	; 0x1f
     b88:	98 a1       	ldd	r25, Y+32	; 0x20
     b8a:	0e 94 f9 18 	call	0x31f2	; 0x31f2 <__mulsf3>
     b8e:	dc 01       	movw	r26, r24
     b90:	cb 01       	movw	r24, r22
     b92:	89 a3       	std	Y+33, r24	; 0x21
     b94:	9a a3       	std	Y+34, r25	; 0x22
     b96:	ab a3       	std	Y+35, r26	; 0x23
     b98:	bc a3       	std	Y+36, r27	; 0x24
     b9a:	20 e0       	ldi	r18, 0x00	; 0
     b9c:	30 e0       	ldi	r19, 0x00	; 0
     b9e:	40 e8       	ldi	r20, 0x80	; 128
     ba0:	5f e3       	ldi	r21, 0x3F	; 63
     ba2:	69 a1       	ldd	r22, Y+33	; 0x21
     ba4:	7a a1       	ldd	r23, Y+34	; 0x22
     ba6:	8b a1       	ldd	r24, Y+35	; 0x23
     ba8:	9c a1       	ldd	r25, Y+36	; 0x24
     baa:	0e 94 ab 17 	call	0x2f56	; 0x2f56 <__cmpsf2>
     bae:	88 23       	and	r24, r24
     bb0:	2c f4       	brge	.+10     	; 0xbbc <__LOCK_REGION_LENGTH__+0x7bc>
     bb2:	81 e0       	ldi	r24, 0x01	; 1
     bb4:	90 e0       	ldi	r25, 0x00	; 0
     bb6:	9e a3       	std	Y+38, r25	; 0x26
     bb8:	8d a3       	std	Y+37, r24	; 0x25
     bba:	3f c0       	rjmp	.+126    	; 0xc3a <__LOCK_REGION_LENGTH__+0x83a>
     bbc:	20 e0       	ldi	r18, 0x00	; 0
     bbe:	3f ef       	ldi	r19, 0xFF	; 255
     bc0:	4f e7       	ldi	r20, 0x7F	; 127
     bc2:	57 e4       	ldi	r21, 0x47	; 71
     bc4:	69 a1       	ldd	r22, Y+33	; 0x21
     bc6:	7a a1       	ldd	r23, Y+34	; 0x22
     bc8:	8b a1       	ldd	r24, Y+35	; 0x23
     bca:	9c a1       	ldd	r25, Y+36	; 0x24
     bcc:	0e 94 f5 18 	call	0x31ea	; 0x31ea <__gesf2>
     bd0:	18 16       	cp	r1, r24
     bd2:	4c f5       	brge	.+82     	; 0xc26 <__LOCK_REGION_LENGTH__+0x826>
     bd4:	20 e0       	ldi	r18, 0x00	; 0
     bd6:	30 e0       	ldi	r19, 0x00	; 0
     bd8:	40 e2       	ldi	r20, 0x20	; 32
     bda:	51 e4       	ldi	r21, 0x41	; 65
     bdc:	6d 8d       	ldd	r22, Y+29	; 0x1d
     bde:	7e 8d       	ldd	r23, Y+30	; 0x1e
     be0:	8f 8d       	ldd	r24, Y+31	; 0x1f
     be2:	98 a1       	ldd	r25, Y+32	; 0x20
     be4:	0e 94 f9 18 	call	0x31f2	; 0x31f2 <__mulsf3>
     be8:	dc 01       	movw	r26, r24
     bea:	cb 01       	movw	r24, r22
     bec:	bc 01       	movw	r22, r24
     bee:	cd 01       	movw	r24, r26
     bf0:	0e 94 17 18 	call	0x302e	; 0x302e <__fixunssfsi>
     bf4:	dc 01       	movw	r26, r24
     bf6:	cb 01       	movw	r24, r22
     bf8:	9e a3       	std	Y+38, r25	; 0x26
     bfa:	8d a3       	std	Y+37, r24	; 0x25
     bfc:	0f c0       	rjmp	.+30     	; 0xc1c <__LOCK_REGION_LENGTH__+0x81c>
     bfe:	80 e7       	ldi	r24, 0x70	; 112
     c00:	91 e0       	ldi	r25, 0x01	; 1
     c02:	98 a7       	std	Y+40, r25	; 0x28
     c04:	8f a3       	std	Y+39, r24	; 0x27
     c06:	8f a1       	ldd	r24, Y+39	; 0x27
     c08:	98 a5       	ldd	r25, Y+40	; 0x28
     c0a:	01 97       	sbiw	r24, 0x01	; 1
     c0c:	f1 f7       	brne	.-4      	; 0xc0a <__LOCK_REGION_LENGTH__+0x80a>
     c0e:	98 a7       	std	Y+40, r25	; 0x28
     c10:	8f a3       	std	Y+39, r24	; 0x27
     c12:	8d a1       	ldd	r24, Y+37	; 0x25
     c14:	9e a1       	ldd	r25, Y+38	; 0x26
     c16:	01 97       	sbiw	r24, 0x01	; 1
     c18:	9e a3       	std	Y+38, r25	; 0x26
     c1a:	8d a3       	std	Y+37, r24	; 0x25
     c1c:	8d a1       	ldd	r24, Y+37	; 0x25
     c1e:	9e a1       	ldd	r25, Y+38	; 0x26
     c20:	89 2b       	or	r24, r25
     c22:	69 f7       	brne	.-38     	; 0xbfe <__LOCK_REGION_LENGTH__+0x7fe>
     c24:	14 c0       	rjmp	.+40     	; 0xc4e <__LOCK_REGION_LENGTH__+0x84e>
     c26:	69 a1       	ldd	r22, Y+33	; 0x21
     c28:	7a a1       	ldd	r23, Y+34	; 0x22
     c2a:	8b a1       	ldd	r24, Y+35	; 0x23
     c2c:	9c a1       	ldd	r25, Y+36	; 0x24
     c2e:	0e 94 17 18 	call	0x302e	; 0x302e <__fixunssfsi>
     c32:	dc 01       	movw	r26, r24
     c34:	cb 01       	movw	r24, r22
     c36:	9e a3       	std	Y+38, r25	; 0x26
     c38:	8d a3       	std	Y+37, r24	; 0x25
     c3a:	8d a1       	ldd	r24, Y+37	; 0x25
     c3c:	9e a1       	ldd	r25, Y+38	; 0x26
     c3e:	9a a7       	std	Y+42, r25	; 0x2a
     c40:	89 a7       	std	Y+41, r24	; 0x29
     c42:	89 a5       	ldd	r24, Y+41	; 0x29
     c44:	9a a5       	ldd	r25, Y+42	; 0x2a
     c46:	01 97       	sbiw	r24, 0x01	; 1
     c48:	f1 f7       	brne	.-4      	; 0xc46 <__LOCK_REGION_LENGTH__+0x846>
     c4a:	9a a7       	std	Y+42, r25	; 0x2a
     c4c:	89 a7       	std	Y+41, r24	; 0x29
     c4e:	88 e2       	ldi	r24, 0x28	; 40
     c50:	90 e0       	ldi	r25, 0x00	; 0
     c52:	28 e2       	ldi	r18, 0x28	; 40
     c54:	30 e0       	ldi	r19, 0x00	; 0
     c56:	f9 01       	movw	r30, r18
     c58:	20 81       	ld	r18, Z
     c5a:	2b 7f       	andi	r18, 0xFB	; 251
     c5c:	fc 01       	movw	r30, r24
     c5e:	20 83       	st	Z, r18
     c60:	00 00       	nop
     c62:	c0 59       	subi	r28, 0x90	; 144
     c64:	df 4f       	sbci	r29, 0xFF	; 255
     c66:	0f b6       	in	r0, 0x3f	; 63
     c68:	f8 94       	cli
     c6a:	de bf       	out	0x3e, r29	; 62
     c6c:	0f be       	out	0x3f, r0	; 63
     c6e:	cd bf       	out	0x3d, r28	; 61
     c70:	df 91       	pop	r29
     c72:	cf 91       	pop	r28
     c74:	1f 91       	pop	r17
     c76:	0f 91       	pop	r16
     c78:	08 95       	ret

00000c7a <lcd_init>:
     c7a:	cf 93       	push	r28
     c7c:	df 93       	push	r29
     c7e:	cd b7       	in	r28, 0x3d	; 61
     c80:	de b7       	in	r29, 0x3e	; 62
     c82:	2e 97       	sbiw	r28, 0x0e	; 14
     c84:	0f b6       	in	r0, 0x3f	; 63
     c86:	f8 94       	cli
     c88:	de bf       	out	0x3e, r29	; 62
     c8a:	0f be       	out	0x3f, r0	; 63
     c8c:	cd bf       	out	0x3d, r28	; 61
     c8e:	80 e0       	ldi	r24, 0x00	; 0
     c90:	90 e0       	ldi	r25, 0x00	; 0
     c92:	a0 e8       	ldi	r26, 0x80	; 128
     c94:	bf e3       	ldi	r27, 0x3F	; 63
     c96:	89 83       	std	Y+1, r24	; 0x01
     c98:	9a 83       	std	Y+2, r25	; 0x02
     c9a:	ab 83       	std	Y+3, r26	; 0x03
     c9c:	bc 83       	std	Y+4, r27	; 0x04
     c9e:	26 e6       	ldi	r18, 0x66	; 102
     ca0:	36 e6       	ldi	r19, 0x66	; 102
     ca2:	46 e6       	ldi	r20, 0x66	; 102
     ca4:	55 e4       	ldi	r21, 0x45	; 69
     ca6:	69 81       	ldd	r22, Y+1	; 0x01
     ca8:	7a 81       	ldd	r23, Y+2	; 0x02
     caa:	8b 81       	ldd	r24, Y+3	; 0x03
     cac:	9c 81       	ldd	r25, Y+4	; 0x04
     cae:	0e 94 f9 18 	call	0x31f2	; 0x31f2 <__mulsf3>
     cb2:	dc 01       	movw	r26, r24
     cb4:	cb 01       	movw	r24, r22
     cb6:	8d 83       	std	Y+5, r24	; 0x05
     cb8:	9e 83       	std	Y+6, r25	; 0x06
     cba:	af 83       	std	Y+7, r26	; 0x07
     cbc:	b8 87       	std	Y+8, r27	; 0x08
     cbe:	20 e0       	ldi	r18, 0x00	; 0
     cc0:	30 e0       	ldi	r19, 0x00	; 0
     cc2:	40 e8       	ldi	r20, 0x80	; 128
     cc4:	5f e3       	ldi	r21, 0x3F	; 63
     cc6:	6d 81       	ldd	r22, Y+5	; 0x05
     cc8:	7e 81       	ldd	r23, Y+6	; 0x06
     cca:	8f 81       	ldd	r24, Y+7	; 0x07
     ccc:	98 85       	ldd	r25, Y+8	; 0x08
     cce:	0e 94 ab 17 	call	0x2f56	; 0x2f56 <__cmpsf2>
     cd2:	88 23       	and	r24, r24
     cd4:	2c f4       	brge	.+10     	; 0xce0 <lcd_init+0x66>
     cd6:	81 e0       	ldi	r24, 0x01	; 1
     cd8:	90 e0       	ldi	r25, 0x00	; 0
     cda:	9a 87       	std	Y+10, r25	; 0x0a
     cdc:	89 87       	std	Y+9, r24	; 0x09
     cde:	3f c0       	rjmp	.+126    	; 0xd5e <lcd_init+0xe4>
     ce0:	20 e0       	ldi	r18, 0x00	; 0
     ce2:	3f ef       	ldi	r19, 0xFF	; 255
     ce4:	4f e7       	ldi	r20, 0x7F	; 127
     ce6:	57 e4       	ldi	r21, 0x47	; 71
     ce8:	6d 81       	ldd	r22, Y+5	; 0x05
     cea:	7e 81       	ldd	r23, Y+6	; 0x06
     cec:	8f 81       	ldd	r24, Y+7	; 0x07
     cee:	98 85       	ldd	r25, Y+8	; 0x08
     cf0:	0e 94 f5 18 	call	0x31ea	; 0x31ea <__gesf2>
     cf4:	18 16       	cp	r1, r24
     cf6:	4c f5       	brge	.+82     	; 0xd4a <lcd_init+0xd0>
     cf8:	20 e0       	ldi	r18, 0x00	; 0
     cfa:	30 e0       	ldi	r19, 0x00	; 0
     cfc:	40 e2       	ldi	r20, 0x20	; 32
     cfe:	51 e4       	ldi	r21, 0x41	; 65
     d00:	69 81       	ldd	r22, Y+1	; 0x01
     d02:	7a 81       	ldd	r23, Y+2	; 0x02
     d04:	8b 81       	ldd	r24, Y+3	; 0x03
     d06:	9c 81       	ldd	r25, Y+4	; 0x04
     d08:	0e 94 f9 18 	call	0x31f2	; 0x31f2 <__mulsf3>
     d0c:	dc 01       	movw	r26, r24
     d0e:	cb 01       	movw	r24, r22
     d10:	bc 01       	movw	r22, r24
     d12:	cd 01       	movw	r24, r26
     d14:	0e 94 17 18 	call	0x302e	; 0x302e <__fixunssfsi>
     d18:	dc 01       	movw	r26, r24
     d1a:	cb 01       	movw	r24, r22
     d1c:	9a 87       	std	Y+10, r25	; 0x0a
     d1e:	89 87       	std	Y+9, r24	; 0x09
     d20:	0f c0       	rjmp	.+30     	; 0xd40 <lcd_init+0xc6>
     d22:	80 e7       	ldi	r24, 0x70	; 112
     d24:	91 e0       	ldi	r25, 0x01	; 1
     d26:	9c 87       	std	Y+12, r25	; 0x0c
     d28:	8b 87       	std	Y+11, r24	; 0x0b
     d2a:	8b 85       	ldd	r24, Y+11	; 0x0b
     d2c:	9c 85       	ldd	r25, Y+12	; 0x0c
     d2e:	01 97       	sbiw	r24, 0x01	; 1
     d30:	f1 f7       	brne	.-4      	; 0xd2e <lcd_init+0xb4>
     d32:	9c 87       	std	Y+12, r25	; 0x0c
     d34:	8b 87       	std	Y+11, r24	; 0x0b
     d36:	89 85       	ldd	r24, Y+9	; 0x09
     d38:	9a 85       	ldd	r25, Y+10	; 0x0a
     d3a:	01 97       	sbiw	r24, 0x01	; 1
     d3c:	9a 87       	std	Y+10, r25	; 0x0a
     d3e:	89 87       	std	Y+9, r24	; 0x09
     d40:	89 85       	ldd	r24, Y+9	; 0x09
     d42:	9a 85       	ldd	r25, Y+10	; 0x0a
     d44:	89 2b       	or	r24, r25
     d46:	69 f7       	brne	.-38     	; 0xd22 <lcd_init+0xa8>
     d48:	14 c0       	rjmp	.+40     	; 0xd72 <lcd_init+0xf8>
     d4a:	6d 81       	ldd	r22, Y+5	; 0x05
     d4c:	7e 81       	ldd	r23, Y+6	; 0x06
     d4e:	8f 81       	ldd	r24, Y+7	; 0x07
     d50:	98 85       	ldd	r25, Y+8	; 0x08
     d52:	0e 94 17 18 	call	0x302e	; 0x302e <__fixunssfsi>
     d56:	dc 01       	movw	r26, r24
     d58:	cb 01       	movw	r24, r22
     d5a:	9a 87       	std	Y+10, r25	; 0x0a
     d5c:	89 87       	std	Y+9, r24	; 0x09
     d5e:	89 85       	ldd	r24, Y+9	; 0x09
     d60:	9a 85       	ldd	r25, Y+10	; 0x0a
     d62:	9e 87       	std	Y+14, r25	; 0x0e
     d64:	8d 87       	std	Y+13, r24	; 0x0d
     d66:	8d 85       	ldd	r24, Y+13	; 0x0d
     d68:	9e 85       	ldd	r25, Y+14	; 0x0e
     d6a:	01 97       	sbiw	r24, 0x01	; 1
     d6c:	f1 f7       	brne	.-4      	; 0xd6a <lcd_init+0xf0>
     d6e:	9e 87       	std	Y+14, r25	; 0x0e
     d70:	8d 87       	std	Y+13, r24	; 0x0d
     d72:	88 e2       	ldi	r24, 0x28	; 40
     d74:	12 d0       	rcall	.+36     	; 0xd9a <lcd_wr_command>
     d76:	81 e0       	ldi	r24, 0x01	; 1
     d78:	10 d0       	rcall	.+32     	; 0xd9a <lcd_wr_command>
     d7a:	86 e0       	ldi	r24, 0x06	; 6
     d7c:	0e d0       	rcall	.+28     	; 0xd9a <lcd_wr_command>
     d7e:	8e e0       	ldi	r24, 0x0E	; 14
     d80:	0c d0       	rcall	.+24     	; 0xd9a <lcd_wr_command>
     d82:	80 e8       	ldi	r24, 0x80	; 128
     d84:	0a d0       	rcall	.+20     	; 0xd9a <lcd_wr_command>
     d86:	00 00       	nop
     d88:	2e 96       	adiw	r28, 0x0e	; 14
     d8a:	0f b6       	in	r0, 0x3f	; 63
     d8c:	f8 94       	cli
     d8e:	de bf       	out	0x3e, r29	; 62
     d90:	0f be       	out	0x3f, r0	; 63
     d92:	cd bf       	out	0x3d, r28	; 61
     d94:	df 91       	pop	r29
     d96:	cf 91       	pop	r28
     d98:	08 95       	ret

00000d9a <lcd_wr_command>:
     d9a:	cf 93       	push	r28
     d9c:	df 93       	push	r29
     d9e:	cd b7       	in	r28, 0x3d	; 61
     da0:	de b7       	in	r29, 0x3e	; 62
     da2:	6e 97       	sbiw	r28, 0x1e	; 30
     da4:	0f b6       	in	r0, 0x3f	; 63
     da6:	f8 94       	cli
     da8:	de bf       	out	0x3e, r29	; 62
     daa:	0f be       	out	0x3f, r0	; 63
     dac:	cd bf       	out	0x3d, r28	; 61
     dae:	8e 8f       	std	Y+30, r24	; 0x1e
     db0:	8e 8d       	ldd	r24, Y+30	; 0x1e
     db2:	89 83       	std	Y+1, r24	; 0x01
     db4:	89 81       	ldd	r24, Y+1	; 0x01
     db6:	80 7f       	andi	r24, 0xF0	; 240
     db8:	89 83       	std	Y+1, r24	; 0x01
     dba:	88 e2       	ldi	r24, 0x28	; 40
     dbc:	90 e0       	ldi	r25, 0x00	; 0
     dbe:	28 e2       	ldi	r18, 0x28	; 40
     dc0:	30 e0       	ldi	r19, 0x00	; 0
     dc2:	f9 01       	movw	r30, r18
     dc4:	20 81       	ld	r18, Z
     dc6:	2f 70       	andi	r18, 0x0F	; 15
     dc8:	fc 01       	movw	r30, r24
     dca:	20 83       	st	Z, r18
     dcc:	88 e2       	ldi	r24, 0x28	; 40
     dce:	90 e0       	ldi	r25, 0x00	; 0
     dd0:	28 e2       	ldi	r18, 0x28	; 40
     dd2:	30 e0       	ldi	r19, 0x00	; 0
     dd4:	f9 01       	movw	r30, r18
     dd6:	30 81       	ld	r19, Z
     dd8:	29 81       	ldd	r18, Y+1	; 0x01
     dda:	23 2b       	or	r18, r19
     ddc:	fc 01       	movw	r30, r24
     dde:	20 83       	st	Z, r18
     de0:	88 e2       	ldi	r24, 0x28	; 40
     de2:	90 e0       	ldi	r25, 0x00	; 0
     de4:	28 e2       	ldi	r18, 0x28	; 40
     de6:	30 e0       	ldi	r19, 0x00	; 0
     de8:	f9 01       	movw	r30, r18
     dea:	20 81       	ld	r18, Z
     dec:	2e 7f       	andi	r18, 0xFE	; 254
     dee:	fc 01       	movw	r30, r24
     df0:	20 83       	st	Z, r18
     df2:	88 e2       	ldi	r24, 0x28	; 40
     df4:	90 e0       	ldi	r25, 0x00	; 0
     df6:	28 e2       	ldi	r18, 0x28	; 40
     df8:	30 e0       	ldi	r19, 0x00	; 0
     dfa:	f9 01       	movw	r30, r18
     dfc:	20 81       	ld	r18, Z
     dfe:	2d 7f       	andi	r18, 0xFD	; 253
     e00:	fc 01       	movw	r30, r24
     e02:	20 83       	st	Z, r18
     e04:	88 e2       	ldi	r24, 0x28	; 40
     e06:	90 e0       	ldi	r25, 0x00	; 0
     e08:	28 e2       	ldi	r18, 0x28	; 40
     e0a:	30 e0       	ldi	r19, 0x00	; 0
     e0c:	f9 01       	movw	r30, r18
     e0e:	20 81       	ld	r18, Z
     e10:	24 60       	ori	r18, 0x04	; 4
     e12:	fc 01       	movw	r30, r24
     e14:	20 83       	st	Z, r18
     e16:	80 e0       	ldi	r24, 0x00	; 0
     e18:	90 e0       	ldi	r25, 0x00	; 0
     e1a:	a0 ea       	ldi	r26, 0xA0	; 160
     e1c:	b0 e4       	ldi	r27, 0x40	; 64
     e1e:	8a 83       	std	Y+2, r24	; 0x02
     e20:	9b 83       	std	Y+3, r25	; 0x03
     e22:	ac 83       	std	Y+4, r26	; 0x04
     e24:	bd 83       	std	Y+5, r27	; 0x05
     e26:	26 e6       	ldi	r18, 0x66	; 102
     e28:	36 e6       	ldi	r19, 0x66	; 102
     e2a:	46 e6       	ldi	r20, 0x66	; 102
     e2c:	55 e4       	ldi	r21, 0x45	; 69
     e2e:	6a 81       	ldd	r22, Y+2	; 0x02
     e30:	7b 81       	ldd	r23, Y+3	; 0x03
     e32:	8c 81       	ldd	r24, Y+4	; 0x04
     e34:	9d 81       	ldd	r25, Y+5	; 0x05
     e36:	0e 94 f9 18 	call	0x31f2	; 0x31f2 <__mulsf3>
     e3a:	dc 01       	movw	r26, r24
     e3c:	cb 01       	movw	r24, r22
     e3e:	8c 8b       	std	Y+20, r24	; 0x14
     e40:	9d 8b       	std	Y+21, r25	; 0x15
     e42:	ae 8b       	std	Y+22, r26	; 0x16
     e44:	bf 8b       	std	Y+23, r27	; 0x17
     e46:	20 e0       	ldi	r18, 0x00	; 0
     e48:	30 e0       	ldi	r19, 0x00	; 0
     e4a:	40 e8       	ldi	r20, 0x80	; 128
     e4c:	5f e3       	ldi	r21, 0x3F	; 63
     e4e:	6c 89       	ldd	r22, Y+20	; 0x14
     e50:	7d 89       	ldd	r23, Y+21	; 0x15
     e52:	8e 89       	ldd	r24, Y+22	; 0x16
     e54:	9f 89       	ldd	r25, Y+23	; 0x17
     e56:	0e 94 ab 17 	call	0x2f56	; 0x2f56 <__cmpsf2>
     e5a:	88 23       	and	r24, r24
     e5c:	2c f4       	brge	.+10     	; 0xe68 <lcd_wr_command+0xce>
     e5e:	81 e0       	ldi	r24, 0x01	; 1
     e60:	90 e0       	ldi	r25, 0x00	; 0
     e62:	99 8f       	std	Y+25, r25	; 0x19
     e64:	88 8f       	std	Y+24, r24	; 0x18
     e66:	3f c0       	rjmp	.+126    	; 0xee6 <lcd_wr_command+0x14c>
     e68:	20 e0       	ldi	r18, 0x00	; 0
     e6a:	3f ef       	ldi	r19, 0xFF	; 255
     e6c:	4f e7       	ldi	r20, 0x7F	; 127
     e6e:	57 e4       	ldi	r21, 0x47	; 71
     e70:	6c 89       	ldd	r22, Y+20	; 0x14
     e72:	7d 89       	ldd	r23, Y+21	; 0x15
     e74:	8e 89       	ldd	r24, Y+22	; 0x16
     e76:	9f 89       	ldd	r25, Y+23	; 0x17
     e78:	0e 94 f5 18 	call	0x31ea	; 0x31ea <__gesf2>
     e7c:	18 16       	cp	r1, r24
     e7e:	4c f5       	brge	.+82     	; 0xed2 <lcd_wr_command+0x138>
     e80:	20 e0       	ldi	r18, 0x00	; 0
     e82:	30 e0       	ldi	r19, 0x00	; 0
     e84:	40 e2       	ldi	r20, 0x20	; 32
     e86:	51 e4       	ldi	r21, 0x41	; 65
     e88:	6a 81       	ldd	r22, Y+2	; 0x02
     e8a:	7b 81       	ldd	r23, Y+3	; 0x03
     e8c:	8c 81       	ldd	r24, Y+4	; 0x04
     e8e:	9d 81       	ldd	r25, Y+5	; 0x05
     e90:	0e 94 f9 18 	call	0x31f2	; 0x31f2 <__mulsf3>
     e94:	dc 01       	movw	r26, r24
     e96:	cb 01       	movw	r24, r22
     e98:	bc 01       	movw	r22, r24
     e9a:	cd 01       	movw	r24, r26
     e9c:	0e 94 17 18 	call	0x302e	; 0x302e <__fixunssfsi>
     ea0:	dc 01       	movw	r26, r24
     ea2:	cb 01       	movw	r24, r22
     ea4:	99 8f       	std	Y+25, r25	; 0x19
     ea6:	88 8f       	std	Y+24, r24	; 0x18
     ea8:	0f c0       	rjmp	.+30     	; 0xec8 <lcd_wr_command+0x12e>
     eaa:	80 e7       	ldi	r24, 0x70	; 112
     eac:	91 e0       	ldi	r25, 0x01	; 1
     eae:	9b 8f       	std	Y+27, r25	; 0x1b
     eb0:	8a 8f       	std	Y+26, r24	; 0x1a
     eb2:	8a 8d       	ldd	r24, Y+26	; 0x1a
     eb4:	9b 8d       	ldd	r25, Y+27	; 0x1b
     eb6:	01 97       	sbiw	r24, 0x01	; 1
     eb8:	f1 f7       	brne	.-4      	; 0xeb6 <lcd_wr_command+0x11c>
     eba:	9b 8f       	std	Y+27, r25	; 0x1b
     ebc:	8a 8f       	std	Y+26, r24	; 0x1a
     ebe:	88 8d       	ldd	r24, Y+24	; 0x18
     ec0:	99 8d       	ldd	r25, Y+25	; 0x19
     ec2:	01 97       	sbiw	r24, 0x01	; 1
     ec4:	99 8f       	std	Y+25, r25	; 0x19
     ec6:	88 8f       	std	Y+24, r24	; 0x18
     ec8:	88 8d       	ldd	r24, Y+24	; 0x18
     eca:	99 8d       	ldd	r25, Y+25	; 0x19
     ecc:	89 2b       	or	r24, r25
     ece:	69 f7       	brne	.-38     	; 0xeaa <lcd_wr_command+0x110>
     ed0:	14 c0       	rjmp	.+40     	; 0xefa <lcd_wr_command+0x160>
     ed2:	6c 89       	ldd	r22, Y+20	; 0x14
     ed4:	7d 89       	ldd	r23, Y+21	; 0x15
     ed6:	8e 89       	ldd	r24, Y+22	; 0x16
     ed8:	9f 89       	ldd	r25, Y+23	; 0x17
     eda:	0e 94 17 18 	call	0x302e	; 0x302e <__fixunssfsi>
     ede:	dc 01       	movw	r26, r24
     ee0:	cb 01       	movw	r24, r22
     ee2:	99 8f       	std	Y+25, r25	; 0x19
     ee4:	88 8f       	std	Y+24, r24	; 0x18
     ee6:	88 8d       	ldd	r24, Y+24	; 0x18
     ee8:	99 8d       	ldd	r25, Y+25	; 0x19
     eea:	9d 8f       	std	Y+29, r25	; 0x1d
     eec:	8c 8f       	std	Y+28, r24	; 0x1c
     eee:	8c 8d       	ldd	r24, Y+28	; 0x1c
     ef0:	9d 8d       	ldd	r25, Y+29	; 0x1d
     ef2:	01 97       	sbiw	r24, 0x01	; 1
     ef4:	f1 f7       	brne	.-4      	; 0xef2 <lcd_wr_command+0x158>
     ef6:	9d 8f       	std	Y+29, r25	; 0x1d
     ef8:	8c 8f       	std	Y+28, r24	; 0x1c
     efa:	88 e2       	ldi	r24, 0x28	; 40
     efc:	90 e0       	ldi	r25, 0x00	; 0
     efe:	28 e2       	ldi	r18, 0x28	; 40
     f00:	30 e0       	ldi	r19, 0x00	; 0
     f02:	f9 01       	movw	r30, r18
     f04:	20 81       	ld	r18, Z
     f06:	2b 7f       	andi	r18, 0xFB	; 251
     f08:	fc 01       	movw	r30, r24
     f0a:	20 83       	st	Z, r18
     f0c:	8e 8d       	ldd	r24, Y+30	; 0x1e
     f0e:	8f 70       	andi	r24, 0x0F	; 15
     f10:	8e 8f       	std	Y+30, r24	; 0x1e
     f12:	8e 8d       	ldd	r24, Y+30	; 0x1e
     f14:	82 95       	swap	r24
     f16:	80 7f       	andi	r24, 0xF0	; 240
     f18:	8e 8f       	std	Y+30, r24	; 0x1e
     f1a:	88 e2       	ldi	r24, 0x28	; 40
     f1c:	90 e0       	ldi	r25, 0x00	; 0
     f1e:	28 e2       	ldi	r18, 0x28	; 40
     f20:	30 e0       	ldi	r19, 0x00	; 0
     f22:	f9 01       	movw	r30, r18
     f24:	20 81       	ld	r18, Z
     f26:	2f 70       	andi	r18, 0x0F	; 15
     f28:	fc 01       	movw	r30, r24
     f2a:	20 83       	st	Z, r18
     f2c:	88 e2       	ldi	r24, 0x28	; 40
     f2e:	90 e0       	ldi	r25, 0x00	; 0
     f30:	28 e2       	ldi	r18, 0x28	; 40
     f32:	30 e0       	ldi	r19, 0x00	; 0
     f34:	f9 01       	movw	r30, r18
     f36:	30 81       	ld	r19, Z
     f38:	2e 8d       	ldd	r18, Y+30	; 0x1e
     f3a:	23 2b       	or	r18, r19
     f3c:	fc 01       	movw	r30, r24
     f3e:	20 83       	st	Z, r18
     f40:	88 e2       	ldi	r24, 0x28	; 40
     f42:	90 e0       	ldi	r25, 0x00	; 0
     f44:	28 e2       	ldi	r18, 0x28	; 40
     f46:	30 e0       	ldi	r19, 0x00	; 0
     f48:	f9 01       	movw	r30, r18
     f4a:	20 81       	ld	r18, Z
     f4c:	2e 7f       	andi	r18, 0xFE	; 254
     f4e:	fc 01       	movw	r30, r24
     f50:	20 83       	st	Z, r18
     f52:	88 e2       	ldi	r24, 0x28	; 40
     f54:	90 e0       	ldi	r25, 0x00	; 0
     f56:	28 e2       	ldi	r18, 0x28	; 40
     f58:	30 e0       	ldi	r19, 0x00	; 0
     f5a:	f9 01       	movw	r30, r18
     f5c:	20 81       	ld	r18, Z
     f5e:	2d 7f       	andi	r18, 0xFD	; 253
     f60:	fc 01       	movw	r30, r24
     f62:	20 83       	st	Z, r18
     f64:	88 e2       	ldi	r24, 0x28	; 40
     f66:	90 e0       	ldi	r25, 0x00	; 0
     f68:	28 e2       	ldi	r18, 0x28	; 40
     f6a:	30 e0       	ldi	r19, 0x00	; 0
     f6c:	f9 01       	movw	r30, r18
     f6e:	20 81       	ld	r18, Z
     f70:	24 60       	ori	r18, 0x04	; 4
     f72:	fc 01       	movw	r30, r24
     f74:	20 83       	st	Z, r18
     f76:	80 e0       	ldi	r24, 0x00	; 0
     f78:	90 e0       	ldi	r25, 0x00	; 0
     f7a:	a0 ea       	ldi	r26, 0xA0	; 160
     f7c:	b0 e4       	ldi	r27, 0x40	; 64
     f7e:	8e 83       	std	Y+6, r24	; 0x06
     f80:	9f 83       	std	Y+7, r25	; 0x07
     f82:	a8 87       	std	Y+8, r26	; 0x08
     f84:	b9 87       	std	Y+9, r27	; 0x09
     f86:	26 e6       	ldi	r18, 0x66	; 102
     f88:	36 e6       	ldi	r19, 0x66	; 102
     f8a:	46 e6       	ldi	r20, 0x66	; 102
     f8c:	55 e4       	ldi	r21, 0x45	; 69
     f8e:	6e 81       	ldd	r22, Y+6	; 0x06
     f90:	7f 81       	ldd	r23, Y+7	; 0x07
     f92:	88 85       	ldd	r24, Y+8	; 0x08
     f94:	99 85       	ldd	r25, Y+9	; 0x09
     f96:	0e 94 f9 18 	call	0x31f2	; 0x31f2 <__mulsf3>
     f9a:	dc 01       	movw	r26, r24
     f9c:	cb 01       	movw	r24, r22
     f9e:	8a 87       	std	Y+10, r24	; 0x0a
     fa0:	9b 87       	std	Y+11, r25	; 0x0b
     fa2:	ac 87       	std	Y+12, r26	; 0x0c
     fa4:	bd 87       	std	Y+13, r27	; 0x0d
     fa6:	20 e0       	ldi	r18, 0x00	; 0
     fa8:	30 e0       	ldi	r19, 0x00	; 0
     faa:	40 e8       	ldi	r20, 0x80	; 128
     fac:	5f e3       	ldi	r21, 0x3F	; 63
     fae:	6a 85       	ldd	r22, Y+10	; 0x0a
     fb0:	7b 85       	ldd	r23, Y+11	; 0x0b
     fb2:	8c 85       	ldd	r24, Y+12	; 0x0c
     fb4:	9d 85       	ldd	r25, Y+13	; 0x0d
     fb6:	0e 94 ab 17 	call	0x2f56	; 0x2f56 <__cmpsf2>
     fba:	88 23       	and	r24, r24
     fbc:	2c f4       	brge	.+10     	; 0xfc8 <lcd_wr_command+0x22e>
     fbe:	81 e0       	ldi	r24, 0x01	; 1
     fc0:	90 e0       	ldi	r25, 0x00	; 0
     fc2:	9f 87       	std	Y+15, r25	; 0x0f
     fc4:	8e 87       	std	Y+14, r24	; 0x0e
     fc6:	3f c0       	rjmp	.+126    	; 0x1046 <lcd_wr_command+0x2ac>
     fc8:	20 e0       	ldi	r18, 0x00	; 0
     fca:	3f ef       	ldi	r19, 0xFF	; 255
     fcc:	4f e7       	ldi	r20, 0x7F	; 127
     fce:	57 e4       	ldi	r21, 0x47	; 71
     fd0:	6a 85       	ldd	r22, Y+10	; 0x0a
     fd2:	7b 85       	ldd	r23, Y+11	; 0x0b
     fd4:	8c 85       	ldd	r24, Y+12	; 0x0c
     fd6:	9d 85       	ldd	r25, Y+13	; 0x0d
     fd8:	0e 94 f5 18 	call	0x31ea	; 0x31ea <__gesf2>
     fdc:	18 16       	cp	r1, r24
     fde:	4c f5       	brge	.+82     	; 0x1032 <lcd_wr_command+0x298>
     fe0:	20 e0       	ldi	r18, 0x00	; 0
     fe2:	30 e0       	ldi	r19, 0x00	; 0
     fe4:	40 e2       	ldi	r20, 0x20	; 32
     fe6:	51 e4       	ldi	r21, 0x41	; 65
     fe8:	6e 81       	ldd	r22, Y+6	; 0x06
     fea:	7f 81       	ldd	r23, Y+7	; 0x07
     fec:	88 85       	ldd	r24, Y+8	; 0x08
     fee:	99 85       	ldd	r25, Y+9	; 0x09
     ff0:	0e 94 f9 18 	call	0x31f2	; 0x31f2 <__mulsf3>
     ff4:	dc 01       	movw	r26, r24
     ff6:	cb 01       	movw	r24, r22
     ff8:	bc 01       	movw	r22, r24
     ffa:	cd 01       	movw	r24, r26
     ffc:	0e 94 17 18 	call	0x302e	; 0x302e <__fixunssfsi>
    1000:	dc 01       	movw	r26, r24
    1002:	cb 01       	movw	r24, r22
    1004:	9f 87       	std	Y+15, r25	; 0x0f
    1006:	8e 87       	std	Y+14, r24	; 0x0e
    1008:	0f c0       	rjmp	.+30     	; 0x1028 <lcd_wr_command+0x28e>
    100a:	80 e7       	ldi	r24, 0x70	; 112
    100c:	91 e0       	ldi	r25, 0x01	; 1
    100e:	99 8b       	std	Y+17, r25	; 0x11
    1010:	88 8b       	std	Y+16, r24	; 0x10
    1012:	88 89       	ldd	r24, Y+16	; 0x10
    1014:	99 89       	ldd	r25, Y+17	; 0x11
    1016:	01 97       	sbiw	r24, 0x01	; 1
    1018:	f1 f7       	brne	.-4      	; 0x1016 <lcd_wr_command+0x27c>
    101a:	99 8b       	std	Y+17, r25	; 0x11
    101c:	88 8b       	std	Y+16, r24	; 0x10
    101e:	8e 85       	ldd	r24, Y+14	; 0x0e
    1020:	9f 85       	ldd	r25, Y+15	; 0x0f
    1022:	01 97       	sbiw	r24, 0x01	; 1
    1024:	9f 87       	std	Y+15, r25	; 0x0f
    1026:	8e 87       	std	Y+14, r24	; 0x0e
    1028:	8e 85       	ldd	r24, Y+14	; 0x0e
    102a:	9f 85       	ldd	r25, Y+15	; 0x0f
    102c:	89 2b       	or	r24, r25
    102e:	69 f7       	brne	.-38     	; 0x100a <lcd_wr_command+0x270>
    1030:	14 c0       	rjmp	.+40     	; 0x105a <lcd_wr_command+0x2c0>
    1032:	6a 85       	ldd	r22, Y+10	; 0x0a
    1034:	7b 85       	ldd	r23, Y+11	; 0x0b
    1036:	8c 85       	ldd	r24, Y+12	; 0x0c
    1038:	9d 85       	ldd	r25, Y+13	; 0x0d
    103a:	0e 94 17 18 	call	0x302e	; 0x302e <__fixunssfsi>
    103e:	dc 01       	movw	r26, r24
    1040:	cb 01       	movw	r24, r22
    1042:	9f 87       	std	Y+15, r25	; 0x0f
    1044:	8e 87       	std	Y+14, r24	; 0x0e
    1046:	8e 85       	ldd	r24, Y+14	; 0x0e
    1048:	9f 85       	ldd	r25, Y+15	; 0x0f
    104a:	9b 8b       	std	Y+19, r25	; 0x13
    104c:	8a 8b       	std	Y+18, r24	; 0x12
    104e:	8a 89       	ldd	r24, Y+18	; 0x12
    1050:	9b 89       	ldd	r25, Y+19	; 0x13
    1052:	01 97       	sbiw	r24, 0x01	; 1
    1054:	f1 f7       	brne	.-4      	; 0x1052 <lcd_wr_command+0x2b8>
    1056:	9b 8b       	std	Y+19, r25	; 0x13
    1058:	8a 8b       	std	Y+18, r24	; 0x12
    105a:	88 e2       	ldi	r24, 0x28	; 40
    105c:	90 e0       	ldi	r25, 0x00	; 0
    105e:	28 e2       	ldi	r18, 0x28	; 40
    1060:	30 e0       	ldi	r19, 0x00	; 0
    1062:	f9 01       	movw	r30, r18
    1064:	20 81       	ld	r18, Z
    1066:	2b 7f       	andi	r18, 0xFB	; 251
    1068:	fc 01       	movw	r30, r24
    106a:	20 83       	st	Z, r18
    106c:	00 00       	nop
    106e:	6e 96       	adiw	r28, 0x1e	; 30
    1070:	0f b6       	in	r0, 0x3f	; 63
    1072:	f8 94       	cli
    1074:	de bf       	out	0x3e, r29	; 62
    1076:	0f be       	out	0x3f, r0	; 63
    1078:	cd bf       	out	0x3d, r28	; 61
    107a:	df 91       	pop	r29
    107c:	cf 91       	pop	r28
    107e:	08 95       	ret

00001080 <lcd_wr_char>:
    1080:	cf 93       	push	r28
    1082:	df 93       	push	r29
    1084:	cd b7       	in	r28, 0x3d	; 61
    1086:	de b7       	in	r29, 0x3e	; 62
    1088:	6e 97       	sbiw	r28, 0x1e	; 30
    108a:	0f b6       	in	r0, 0x3f	; 63
    108c:	f8 94       	cli
    108e:	de bf       	out	0x3e, r29	; 62
    1090:	0f be       	out	0x3f, r0	; 63
    1092:	cd bf       	out	0x3d, r28	; 61
    1094:	8e 8f       	std	Y+30, r24	; 0x1e
    1096:	8e 8d       	ldd	r24, Y+30	; 0x1e
    1098:	89 83       	std	Y+1, r24	; 0x01
    109a:	89 81       	ldd	r24, Y+1	; 0x01
    109c:	80 7f       	andi	r24, 0xF0	; 240
    109e:	89 83       	std	Y+1, r24	; 0x01
    10a0:	88 e2       	ldi	r24, 0x28	; 40
    10a2:	90 e0       	ldi	r25, 0x00	; 0
    10a4:	28 e2       	ldi	r18, 0x28	; 40
    10a6:	30 e0       	ldi	r19, 0x00	; 0
    10a8:	f9 01       	movw	r30, r18
    10aa:	20 81       	ld	r18, Z
    10ac:	2f 70       	andi	r18, 0x0F	; 15
    10ae:	fc 01       	movw	r30, r24
    10b0:	20 83       	st	Z, r18
    10b2:	88 e2       	ldi	r24, 0x28	; 40
    10b4:	90 e0       	ldi	r25, 0x00	; 0
    10b6:	28 e2       	ldi	r18, 0x28	; 40
    10b8:	30 e0       	ldi	r19, 0x00	; 0
    10ba:	f9 01       	movw	r30, r18
    10bc:	30 81       	ld	r19, Z
    10be:	29 81       	ldd	r18, Y+1	; 0x01
    10c0:	23 2b       	or	r18, r19
    10c2:	fc 01       	movw	r30, r24
    10c4:	20 83       	st	Z, r18
    10c6:	88 e2       	ldi	r24, 0x28	; 40
    10c8:	90 e0       	ldi	r25, 0x00	; 0
    10ca:	28 e2       	ldi	r18, 0x28	; 40
    10cc:	30 e0       	ldi	r19, 0x00	; 0
    10ce:	f9 01       	movw	r30, r18
    10d0:	20 81       	ld	r18, Z
    10d2:	21 60       	ori	r18, 0x01	; 1
    10d4:	fc 01       	movw	r30, r24
    10d6:	20 83       	st	Z, r18
    10d8:	88 e2       	ldi	r24, 0x28	; 40
    10da:	90 e0       	ldi	r25, 0x00	; 0
    10dc:	28 e2       	ldi	r18, 0x28	; 40
    10de:	30 e0       	ldi	r19, 0x00	; 0
    10e0:	f9 01       	movw	r30, r18
    10e2:	20 81       	ld	r18, Z
    10e4:	2d 7f       	andi	r18, 0xFD	; 253
    10e6:	fc 01       	movw	r30, r24
    10e8:	20 83       	st	Z, r18
    10ea:	88 e2       	ldi	r24, 0x28	; 40
    10ec:	90 e0       	ldi	r25, 0x00	; 0
    10ee:	28 e2       	ldi	r18, 0x28	; 40
    10f0:	30 e0       	ldi	r19, 0x00	; 0
    10f2:	f9 01       	movw	r30, r18
    10f4:	20 81       	ld	r18, Z
    10f6:	24 60       	ori	r18, 0x04	; 4
    10f8:	fc 01       	movw	r30, r24
    10fa:	20 83       	st	Z, r18
    10fc:	80 e0       	ldi	r24, 0x00	; 0
    10fe:	90 e0       	ldi	r25, 0x00	; 0
    1100:	a0 ea       	ldi	r26, 0xA0	; 160
    1102:	b0 e4       	ldi	r27, 0x40	; 64
    1104:	8a 83       	std	Y+2, r24	; 0x02
    1106:	9b 83       	std	Y+3, r25	; 0x03
    1108:	ac 83       	std	Y+4, r26	; 0x04
    110a:	bd 83       	std	Y+5, r27	; 0x05
    110c:	26 e6       	ldi	r18, 0x66	; 102
    110e:	36 e6       	ldi	r19, 0x66	; 102
    1110:	46 e6       	ldi	r20, 0x66	; 102
    1112:	55 e4       	ldi	r21, 0x45	; 69
    1114:	6a 81       	ldd	r22, Y+2	; 0x02
    1116:	7b 81       	ldd	r23, Y+3	; 0x03
    1118:	8c 81       	ldd	r24, Y+4	; 0x04
    111a:	9d 81       	ldd	r25, Y+5	; 0x05
    111c:	0e 94 f9 18 	call	0x31f2	; 0x31f2 <__mulsf3>
    1120:	dc 01       	movw	r26, r24
    1122:	cb 01       	movw	r24, r22
    1124:	8c 8b       	std	Y+20, r24	; 0x14
    1126:	9d 8b       	std	Y+21, r25	; 0x15
    1128:	ae 8b       	std	Y+22, r26	; 0x16
    112a:	bf 8b       	std	Y+23, r27	; 0x17
    112c:	20 e0       	ldi	r18, 0x00	; 0
    112e:	30 e0       	ldi	r19, 0x00	; 0
    1130:	40 e8       	ldi	r20, 0x80	; 128
    1132:	5f e3       	ldi	r21, 0x3F	; 63
    1134:	6c 89       	ldd	r22, Y+20	; 0x14
    1136:	7d 89       	ldd	r23, Y+21	; 0x15
    1138:	8e 89       	ldd	r24, Y+22	; 0x16
    113a:	9f 89       	ldd	r25, Y+23	; 0x17
    113c:	0e 94 ab 17 	call	0x2f56	; 0x2f56 <__cmpsf2>
    1140:	88 23       	and	r24, r24
    1142:	2c f4       	brge	.+10     	; 0x114e <lcd_wr_char+0xce>
    1144:	81 e0       	ldi	r24, 0x01	; 1
    1146:	90 e0       	ldi	r25, 0x00	; 0
    1148:	99 8f       	std	Y+25, r25	; 0x19
    114a:	88 8f       	std	Y+24, r24	; 0x18
    114c:	3f c0       	rjmp	.+126    	; 0x11cc <lcd_wr_char+0x14c>
    114e:	20 e0       	ldi	r18, 0x00	; 0
    1150:	3f ef       	ldi	r19, 0xFF	; 255
    1152:	4f e7       	ldi	r20, 0x7F	; 127
    1154:	57 e4       	ldi	r21, 0x47	; 71
    1156:	6c 89       	ldd	r22, Y+20	; 0x14
    1158:	7d 89       	ldd	r23, Y+21	; 0x15
    115a:	8e 89       	ldd	r24, Y+22	; 0x16
    115c:	9f 89       	ldd	r25, Y+23	; 0x17
    115e:	0e 94 f5 18 	call	0x31ea	; 0x31ea <__gesf2>
    1162:	18 16       	cp	r1, r24
    1164:	4c f5       	brge	.+82     	; 0x11b8 <lcd_wr_char+0x138>
    1166:	20 e0       	ldi	r18, 0x00	; 0
    1168:	30 e0       	ldi	r19, 0x00	; 0
    116a:	40 e2       	ldi	r20, 0x20	; 32
    116c:	51 e4       	ldi	r21, 0x41	; 65
    116e:	6a 81       	ldd	r22, Y+2	; 0x02
    1170:	7b 81       	ldd	r23, Y+3	; 0x03
    1172:	8c 81       	ldd	r24, Y+4	; 0x04
    1174:	9d 81       	ldd	r25, Y+5	; 0x05
    1176:	0e 94 f9 18 	call	0x31f2	; 0x31f2 <__mulsf3>
    117a:	dc 01       	movw	r26, r24
    117c:	cb 01       	movw	r24, r22
    117e:	bc 01       	movw	r22, r24
    1180:	cd 01       	movw	r24, r26
    1182:	0e 94 17 18 	call	0x302e	; 0x302e <__fixunssfsi>
    1186:	dc 01       	movw	r26, r24
    1188:	cb 01       	movw	r24, r22
    118a:	99 8f       	std	Y+25, r25	; 0x19
    118c:	88 8f       	std	Y+24, r24	; 0x18
    118e:	0f c0       	rjmp	.+30     	; 0x11ae <lcd_wr_char+0x12e>
    1190:	80 e7       	ldi	r24, 0x70	; 112
    1192:	91 e0       	ldi	r25, 0x01	; 1
    1194:	9b 8f       	std	Y+27, r25	; 0x1b
    1196:	8a 8f       	std	Y+26, r24	; 0x1a
    1198:	8a 8d       	ldd	r24, Y+26	; 0x1a
    119a:	9b 8d       	ldd	r25, Y+27	; 0x1b
    119c:	01 97       	sbiw	r24, 0x01	; 1
    119e:	f1 f7       	brne	.-4      	; 0x119c <lcd_wr_char+0x11c>
    11a0:	9b 8f       	std	Y+27, r25	; 0x1b
    11a2:	8a 8f       	std	Y+26, r24	; 0x1a
    11a4:	88 8d       	ldd	r24, Y+24	; 0x18
    11a6:	99 8d       	ldd	r25, Y+25	; 0x19
    11a8:	01 97       	sbiw	r24, 0x01	; 1
    11aa:	99 8f       	std	Y+25, r25	; 0x19
    11ac:	88 8f       	std	Y+24, r24	; 0x18
    11ae:	88 8d       	ldd	r24, Y+24	; 0x18
    11b0:	99 8d       	ldd	r25, Y+25	; 0x19
    11b2:	89 2b       	or	r24, r25
    11b4:	69 f7       	brne	.-38     	; 0x1190 <lcd_wr_char+0x110>
    11b6:	14 c0       	rjmp	.+40     	; 0x11e0 <lcd_wr_char+0x160>
    11b8:	6c 89       	ldd	r22, Y+20	; 0x14
    11ba:	7d 89       	ldd	r23, Y+21	; 0x15
    11bc:	8e 89       	ldd	r24, Y+22	; 0x16
    11be:	9f 89       	ldd	r25, Y+23	; 0x17
    11c0:	0e 94 17 18 	call	0x302e	; 0x302e <__fixunssfsi>
    11c4:	dc 01       	movw	r26, r24
    11c6:	cb 01       	movw	r24, r22
    11c8:	99 8f       	std	Y+25, r25	; 0x19
    11ca:	88 8f       	std	Y+24, r24	; 0x18
    11cc:	88 8d       	ldd	r24, Y+24	; 0x18
    11ce:	99 8d       	ldd	r25, Y+25	; 0x19
    11d0:	9d 8f       	std	Y+29, r25	; 0x1d
    11d2:	8c 8f       	std	Y+28, r24	; 0x1c
    11d4:	8c 8d       	ldd	r24, Y+28	; 0x1c
    11d6:	9d 8d       	ldd	r25, Y+29	; 0x1d
    11d8:	01 97       	sbiw	r24, 0x01	; 1
    11da:	f1 f7       	brne	.-4      	; 0x11d8 <lcd_wr_char+0x158>
    11dc:	9d 8f       	std	Y+29, r25	; 0x1d
    11de:	8c 8f       	std	Y+28, r24	; 0x1c
    11e0:	88 e2       	ldi	r24, 0x28	; 40
    11e2:	90 e0       	ldi	r25, 0x00	; 0
    11e4:	28 e2       	ldi	r18, 0x28	; 40
    11e6:	30 e0       	ldi	r19, 0x00	; 0
    11e8:	f9 01       	movw	r30, r18
    11ea:	20 81       	ld	r18, Z
    11ec:	2b 7f       	andi	r18, 0xFB	; 251
    11ee:	fc 01       	movw	r30, r24
    11f0:	20 83       	st	Z, r18
    11f2:	8e 8d       	ldd	r24, Y+30	; 0x1e
    11f4:	8f 70       	andi	r24, 0x0F	; 15
    11f6:	8e 8f       	std	Y+30, r24	; 0x1e
    11f8:	8e 8d       	ldd	r24, Y+30	; 0x1e
    11fa:	82 95       	swap	r24
    11fc:	80 7f       	andi	r24, 0xF0	; 240
    11fe:	8e 8f       	std	Y+30, r24	; 0x1e
    1200:	88 e2       	ldi	r24, 0x28	; 40
    1202:	90 e0       	ldi	r25, 0x00	; 0
    1204:	28 e2       	ldi	r18, 0x28	; 40
    1206:	30 e0       	ldi	r19, 0x00	; 0
    1208:	f9 01       	movw	r30, r18
    120a:	20 81       	ld	r18, Z
    120c:	2f 70       	andi	r18, 0x0F	; 15
    120e:	fc 01       	movw	r30, r24
    1210:	20 83       	st	Z, r18
    1212:	88 e2       	ldi	r24, 0x28	; 40
    1214:	90 e0       	ldi	r25, 0x00	; 0
    1216:	28 e2       	ldi	r18, 0x28	; 40
    1218:	30 e0       	ldi	r19, 0x00	; 0
    121a:	f9 01       	movw	r30, r18
    121c:	30 81       	ld	r19, Z
    121e:	2e 8d       	ldd	r18, Y+30	; 0x1e
    1220:	23 2b       	or	r18, r19
    1222:	fc 01       	movw	r30, r24
    1224:	20 83       	st	Z, r18
    1226:	88 e2       	ldi	r24, 0x28	; 40
    1228:	90 e0       	ldi	r25, 0x00	; 0
    122a:	28 e2       	ldi	r18, 0x28	; 40
    122c:	30 e0       	ldi	r19, 0x00	; 0
    122e:	f9 01       	movw	r30, r18
    1230:	20 81       	ld	r18, Z
    1232:	21 60       	ori	r18, 0x01	; 1
    1234:	fc 01       	movw	r30, r24
    1236:	20 83       	st	Z, r18
    1238:	88 e2       	ldi	r24, 0x28	; 40
    123a:	90 e0       	ldi	r25, 0x00	; 0
    123c:	28 e2       	ldi	r18, 0x28	; 40
    123e:	30 e0       	ldi	r19, 0x00	; 0
    1240:	f9 01       	movw	r30, r18
    1242:	20 81       	ld	r18, Z
    1244:	2d 7f       	andi	r18, 0xFD	; 253
    1246:	fc 01       	movw	r30, r24
    1248:	20 83       	st	Z, r18
    124a:	88 e2       	ldi	r24, 0x28	; 40
    124c:	90 e0       	ldi	r25, 0x00	; 0
    124e:	28 e2       	ldi	r18, 0x28	; 40
    1250:	30 e0       	ldi	r19, 0x00	; 0
    1252:	f9 01       	movw	r30, r18
    1254:	20 81       	ld	r18, Z
    1256:	24 60       	ori	r18, 0x04	; 4
    1258:	fc 01       	movw	r30, r24
    125a:	20 83       	st	Z, r18
    125c:	80 e0       	ldi	r24, 0x00	; 0
    125e:	90 e0       	ldi	r25, 0x00	; 0
    1260:	a0 ea       	ldi	r26, 0xA0	; 160
    1262:	b0 e4       	ldi	r27, 0x40	; 64
    1264:	8e 83       	std	Y+6, r24	; 0x06
    1266:	9f 83       	std	Y+7, r25	; 0x07
    1268:	a8 87       	std	Y+8, r26	; 0x08
    126a:	b9 87       	std	Y+9, r27	; 0x09
    126c:	26 e6       	ldi	r18, 0x66	; 102
    126e:	36 e6       	ldi	r19, 0x66	; 102
    1270:	46 e6       	ldi	r20, 0x66	; 102
    1272:	55 e4       	ldi	r21, 0x45	; 69
    1274:	6e 81       	ldd	r22, Y+6	; 0x06
    1276:	7f 81       	ldd	r23, Y+7	; 0x07
    1278:	88 85       	ldd	r24, Y+8	; 0x08
    127a:	99 85       	ldd	r25, Y+9	; 0x09
    127c:	0e 94 f9 18 	call	0x31f2	; 0x31f2 <__mulsf3>
    1280:	dc 01       	movw	r26, r24
    1282:	cb 01       	movw	r24, r22
    1284:	8a 87       	std	Y+10, r24	; 0x0a
    1286:	9b 87       	std	Y+11, r25	; 0x0b
    1288:	ac 87       	std	Y+12, r26	; 0x0c
    128a:	bd 87       	std	Y+13, r27	; 0x0d
    128c:	20 e0       	ldi	r18, 0x00	; 0
    128e:	30 e0       	ldi	r19, 0x00	; 0
    1290:	40 e8       	ldi	r20, 0x80	; 128
    1292:	5f e3       	ldi	r21, 0x3F	; 63
    1294:	6a 85       	ldd	r22, Y+10	; 0x0a
    1296:	7b 85       	ldd	r23, Y+11	; 0x0b
    1298:	8c 85       	ldd	r24, Y+12	; 0x0c
    129a:	9d 85       	ldd	r25, Y+13	; 0x0d
    129c:	0e 94 ab 17 	call	0x2f56	; 0x2f56 <__cmpsf2>
    12a0:	88 23       	and	r24, r24
    12a2:	2c f4       	brge	.+10     	; 0x12ae <lcd_wr_char+0x22e>
    12a4:	81 e0       	ldi	r24, 0x01	; 1
    12a6:	90 e0       	ldi	r25, 0x00	; 0
    12a8:	9f 87       	std	Y+15, r25	; 0x0f
    12aa:	8e 87       	std	Y+14, r24	; 0x0e
    12ac:	3f c0       	rjmp	.+126    	; 0x132c <lcd_wr_char+0x2ac>
    12ae:	20 e0       	ldi	r18, 0x00	; 0
    12b0:	3f ef       	ldi	r19, 0xFF	; 255
    12b2:	4f e7       	ldi	r20, 0x7F	; 127
    12b4:	57 e4       	ldi	r21, 0x47	; 71
    12b6:	6a 85       	ldd	r22, Y+10	; 0x0a
    12b8:	7b 85       	ldd	r23, Y+11	; 0x0b
    12ba:	8c 85       	ldd	r24, Y+12	; 0x0c
    12bc:	9d 85       	ldd	r25, Y+13	; 0x0d
    12be:	0e 94 f5 18 	call	0x31ea	; 0x31ea <__gesf2>
    12c2:	18 16       	cp	r1, r24
    12c4:	4c f5       	brge	.+82     	; 0x1318 <lcd_wr_char+0x298>
    12c6:	20 e0       	ldi	r18, 0x00	; 0
    12c8:	30 e0       	ldi	r19, 0x00	; 0
    12ca:	40 e2       	ldi	r20, 0x20	; 32
    12cc:	51 e4       	ldi	r21, 0x41	; 65
    12ce:	6e 81       	ldd	r22, Y+6	; 0x06
    12d0:	7f 81       	ldd	r23, Y+7	; 0x07
    12d2:	88 85       	ldd	r24, Y+8	; 0x08
    12d4:	99 85       	ldd	r25, Y+9	; 0x09
    12d6:	0e 94 f9 18 	call	0x31f2	; 0x31f2 <__mulsf3>
    12da:	dc 01       	movw	r26, r24
    12dc:	cb 01       	movw	r24, r22
    12de:	bc 01       	movw	r22, r24
    12e0:	cd 01       	movw	r24, r26
    12e2:	0e 94 17 18 	call	0x302e	; 0x302e <__fixunssfsi>
    12e6:	dc 01       	movw	r26, r24
    12e8:	cb 01       	movw	r24, r22
    12ea:	9f 87       	std	Y+15, r25	; 0x0f
    12ec:	8e 87       	std	Y+14, r24	; 0x0e
    12ee:	0f c0       	rjmp	.+30     	; 0x130e <lcd_wr_char+0x28e>
    12f0:	80 e7       	ldi	r24, 0x70	; 112
    12f2:	91 e0       	ldi	r25, 0x01	; 1
    12f4:	99 8b       	std	Y+17, r25	; 0x11
    12f6:	88 8b       	std	Y+16, r24	; 0x10
    12f8:	88 89       	ldd	r24, Y+16	; 0x10
    12fa:	99 89       	ldd	r25, Y+17	; 0x11
    12fc:	01 97       	sbiw	r24, 0x01	; 1
    12fe:	f1 f7       	brne	.-4      	; 0x12fc <lcd_wr_char+0x27c>
    1300:	99 8b       	std	Y+17, r25	; 0x11
    1302:	88 8b       	std	Y+16, r24	; 0x10
    1304:	8e 85       	ldd	r24, Y+14	; 0x0e
    1306:	9f 85       	ldd	r25, Y+15	; 0x0f
    1308:	01 97       	sbiw	r24, 0x01	; 1
    130a:	9f 87       	std	Y+15, r25	; 0x0f
    130c:	8e 87       	std	Y+14, r24	; 0x0e
    130e:	8e 85       	ldd	r24, Y+14	; 0x0e
    1310:	9f 85       	ldd	r25, Y+15	; 0x0f
    1312:	89 2b       	or	r24, r25
    1314:	69 f7       	brne	.-38     	; 0x12f0 <lcd_wr_char+0x270>
    1316:	14 c0       	rjmp	.+40     	; 0x1340 <lcd_wr_char+0x2c0>
    1318:	6a 85       	ldd	r22, Y+10	; 0x0a
    131a:	7b 85       	ldd	r23, Y+11	; 0x0b
    131c:	8c 85       	ldd	r24, Y+12	; 0x0c
    131e:	9d 85       	ldd	r25, Y+13	; 0x0d
    1320:	0e 94 17 18 	call	0x302e	; 0x302e <__fixunssfsi>
    1324:	dc 01       	movw	r26, r24
    1326:	cb 01       	movw	r24, r22
    1328:	9f 87       	std	Y+15, r25	; 0x0f
    132a:	8e 87       	std	Y+14, r24	; 0x0e
    132c:	8e 85       	ldd	r24, Y+14	; 0x0e
    132e:	9f 85       	ldd	r25, Y+15	; 0x0f
    1330:	9b 8b       	std	Y+19, r25	; 0x13
    1332:	8a 8b       	std	Y+18, r24	; 0x12
    1334:	8a 89       	ldd	r24, Y+18	; 0x12
    1336:	9b 89       	ldd	r25, Y+19	; 0x13
    1338:	01 97       	sbiw	r24, 0x01	; 1
    133a:	f1 f7       	brne	.-4      	; 0x1338 <lcd_wr_char+0x2b8>
    133c:	9b 8b       	std	Y+19, r25	; 0x13
    133e:	8a 8b       	std	Y+18, r24	; 0x12
    1340:	88 e2       	ldi	r24, 0x28	; 40
    1342:	90 e0       	ldi	r25, 0x00	; 0
    1344:	28 e2       	ldi	r18, 0x28	; 40
    1346:	30 e0       	ldi	r19, 0x00	; 0
    1348:	f9 01       	movw	r30, r18
    134a:	20 81       	ld	r18, Z
    134c:	2b 7f       	andi	r18, 0xFB	; 251
    134e:	fc 01       	movw	r30, r24
    1350:	20 83       	st	Z, r18
    1352:	00 00       	nop
    1354:	6e 96       	adiw	r28, 0x1e	; 30
    1356:	0f b6       	in	r0, 0x3f	; 63
    1358:	f8 94       	cli
    135a:	de bf       	out	0x3e, r29	; 62
    135c:	0f be       	out	0x3f, r0	; 63
    135e:	cd bf       	out	0x3d, r28	; 61
    1360:	df 91       	pop	r29
    1362:	cf 91       	pop	r28
    1364:	08 95       	ret

00001366 <lcd_home>:
    1366:	cf 93       	push	r28
    1368:	df 93       	push	r29
    136a:	cd b7       	in	r28, 0x3d	; 61
    136c:	de b7       	in	r29, 0x3e	; 62
    136e:	80 e8       	ldi	r24, 0x80	; 128
    1370:	14 dd       	rcall	.-1496   	; 0xd9a <lcd_wr_command>
    1372:	00 00       	nop
    1374:	df 91       	pop	r29
    1376:	cf 91       	pop	r28
    1378:	08 95       	ret

0000137a <lcd_cursor>:
    137a:	cf 93       	push	r28
    137c:	df 93       	push	r29
    137e:	1f 92       	push	r1
    1380:	1f 92       	push	r1
    1382:	cd b7       	in	r28, 0x3d	; 61
    1384:	de b7       	in	r29, 0x3e	; 62
    1386:	89 83       	std	Y+1, r24	; 0x01
    1388:	6a 83       	std	Y+2, r22	; 0x02
    138a:	89 81       	ldd	r24, Y+1	; 0x01
    138c:	88 2f       	mov	r24, r24
    138e:	90 e0       	ldi	r25, 0x00	; 0
    1390:	82 30       	cpi	r24, 0x02	; 2
    1392:	91 05       	cpc	r25, r1
    1394:	81 f0       	breq	.+32     	; 0x13b6 <lcd_cursor+0x3c>
    1396:	83 30       	cpi	r24, 0x03	; 3
    1398:	91 05       	cpc	r25, r1
    139a:	1c f4       	brge	.+6      	; 0x13a2 <lcd_cursor+0x28>
    139c:	01 97       	sbiw	r24, 0x01	; 1
    139e:	39 f0       	breq	.+14     	; 0x13ae <lcd_cursor+0x34>
    13a0:	16 c0       	rjmp	.+44     	; 0x13ce <lcd_cursor+0x54>
    13a2:	83 30       	cpi	r24, 0x03	; 3
    13a4:	91 05       	cpc	r25, r1
    13a6:	59 f0       	breq	.+22     	; 0x13be <lcd_cursor+0x44>
    13a8:	04 97       	sbiw	r24, 0x04	; 4
    13aa:	69 f0       	breq	.+26     	; 0x13c6 <lcd_cursor+0x4c>
    13ac:	10 c0       	rjmp	.+32     	; 0x13ce <lcd_cursor+0x54>
    13ae:	8a 81       	ldd	r24, Y+2	; 0x02
    13b0:	81 58       	subi	r24, 0x81	; 129
    13b2:	f3 dc       	rcall	.-1562   	; 0xd9a <lcd_wr_command>
    13b4:	0c c0       	rjmp	.+24     	; 0x13ce <lcd_cursor+0x54>
    13b6:	8a 81       	ldd	r24, Y+2	; 0x02
    13b8:	81 54       	subi	r24, 0x41	; 65
    13ba:	ef dc       	rcall	.-1570   	; 0xd9a <lcd_wr_command>
    13bc:	08 c0       	rjmp	.+16     	; 0x13ce <lcd_cursor+0x54>
    13be:	8a 81       	ldd	r24, Y+2	; 0x02
    13c0:	8d 56       	subi	r24, 0x6D	; 109
    13c2:	eb dc       	rcall	.-1578   	; 0xd9a <lcd_wr_command>
    13c4:	04 c0       	rjmp	.+8      	; 0x13ce <lcd_cursor+0x54>
    13c6:	8a 81       	ldd	r24, Y+2	; 0x02
    13c8:	8d 52       	subi	r24, 0x2D	; 45
    13ca:	e7 dc       	rcall	.-1586   	; 0xd9a <lcd_wr_command>
    13cc:	00 00       	nop
    13ce:	00 00       	nop
    13d0:	0f 90       	pop	r0
    13d2:	0f 90       	pop	r0
    13d4:	df 91       	pop	r29
    13d6:	cf 91       	pop	r28
    13d8:	08 95       	ret

000013da <lcd_print>:
    13da:	cf 93       	push	r28
    13dc:	df 93       	push	r29
    13de:	cd b7       	in	r28, 0x3d	; 61
    13e0:	de b7       	in	r29, 0x3e	; 62
    13e2:	27 97       	sbiw	r28, 0x07	; 7
    13e4:	0f b6       	in	r0, 0x3f	; 63
    13e6:	f8 94       	cli
    13e8:	de bf       	out	0x3e, r29	; 62
    13ea:	0f be       	out	0x3f, r0	; 63
    13ec:	cd bf       	out	0x3d, r28	; 61
    13ee:	8a 83       	std	Y+2, r24	; 0x02
    13f0:	6b 83       	std	Y+3, r22	; 0x03
    13f2:	5d 83       	std	Y+5, r21	; 0x05
    13f4:	4c 83       	std	Y+4, r20	; 0x04
    13f6:	3f 83       	std	Y+7, r19	; 0x07
    13f8:	2e 83       	std	Y+6, r18	; 0x06
    13fa:	19 82       	std	Y+1, r1	; 0x01
    13fc:	8a 81       	ldd	r24, Y+2	; 0x02
    13fe:	88 23       	and	r24, r24
    1400:	19 f0       	breq	.+6      	; 0x1408 <lcd_print+0x2e>
    1402:	8b 81       	ldd	r24, Y+3	; 0x03
    1404:	88 23       	and	r24, r24
    1406:	11 f4       	brne	.+4      	; 0x140c <lcd_print+0x32>
    1408:	ae df       	rcall	.-164    	; 0x1366 <lcd_home>
    140a:	03 c0       	rjmp	.+6      	; 0x1412 <lcd_print+0x38>
    140c:	6b 81       	ldd	r22, Y+3	; 0x03
    140e:	8a 81       	ldd	r24, Y+2	; 0x02
    1410:	b4 df       	rcall	.-152    	; 0x137a <lcd_cursor>
    1412:	8e 81       	ldd	r24, Y+6	; 0x06
    1414:	9f 81       	ldd	r25, Y+7	; 0x07
    1416:	05 97       	sbiw	r24, 0x05	; 5
    1418:	19 f0       	breq	.+6      	; 0x1420 <lcd_print+0x46>
    141a:	89 81       	ldd	r24, Y+1	; 0x01
    141c:	81 30       	cpi	r24, 0x01	; 1
    141e:	f9 f4       	brne	.+62     	; 0x145e <lcd_print+0x84>
    1420:	8c 81       	ldd	r24, Y+4	; 0x04
    1422:	9d 81       	ldd	r25, Y+5	; 0x05
    1424:	92 95       	swap	r25
    1426:	82 95       	swap	r24
    1428:	8f 70       	andi	r24, 0x0F	; 15
    142a:	89 27       	eor	r24, r25
    142c:	9f 70       	andi	r25, 0x0F	; 15
    142e:	89 27       	eor	r24, r25
    1430:	9c 01       	movw	r18, r24
    1432:	a7 e4       	ldi	r26, 0x47	; 71
    1434:	b3 e0       	ldi	r27, 0x03	; 3
    1436:	0e 94 5c 19 	call	0x32b8	; 0x32b8 <__umulhisi3>
    143a:	96 95       	lsr	r25
    143c:	87 95       	ror	r24
    143e:	96 95       	lsr	r25
    1440:	87 95       	ror	r24
    1442:	96 95       	lsr	r25
    1444:	87 95       	ror	r24
    1446:	c0 96       	adiw	r24, 0x30	; 48
    1448:	90 93 1a 02 	sts	0x021A, r25	; 0x80021a <million+0x1>
    144c:	80 93 19 02 	sts	0x0219, r24	; 0x800219 <million>
    1450:	80 91 19 02 	lds	r24, 0x0219	; 0x800219 <million>
    1454:	90 91 1a 02 	lds	r25, 0x021A	; 0x80021a <million+0x1>
    1458:	13 de       	rcall	.-986    	; 0x1080 <lcd_wr_char>
    145a:	81 e0       	ldi	r24, 0x01	; 1
    145c:	89 83       	std	Y+1, r24	; 0x01
    145e:	8e 81       	ldd	r24, Y+6	; 0x06
    1460:	9f 81       	ldd	r25, Y+7	; 0x07
    1462:	04 97       	sbiw	r24, 0x04	; 4
    1464:	21 f0       	breq	.+8      	; 0x146e <lcd_print+0x94>
    1466:	89 81       	ldd	r24, Y+1	; 0x01
    1468:	81 30       	cpi	r24, 0x01	; 1
    146a:	09 f0       	breq	.+2      	; 0x146e <lcd_print+0x94>
    146c:	3f c0       	rjmp	.+126    	; 0x14ec <lcd_print+0x112>
    146e:	8c 81       	ldd	r24, Y+4	; 0x04
    1470:	9d 81       	ldd	r25, Y+5	; 0x05
    1472:	96 95       	lsr	r25
    1474:	87 95       	ror	r24
    1476:	96 95       	lsr	r25
    1478:	87 95       	ror	r24
    147a:	96 95       	lsr	r25
    147c:	87 95       	ror	r24
    147e:	9c 01       	movw	r18, r24
    1480:	a5 ec       	ldi	r26, 0xC5	; 197
    1482:	b0 e2       	ldi	r27, 0x20	; 32
    1484:	0e 94 5c 19 	call	0x32b8	; 0x32b8 <__umulhisi3>
    1488:	92 95       	swap	r25
    148a:	82 95       	swap	r24
    148c:	8f 70       	andi	r24, 0x0F	; 15
    148e:	89 27       	eor	r24, r25
    1490:	9f 70       	andi	r25, 0x0F	; 15
    1492:	89 27       	eor	r24, r25
    1494:	90 93 1c 02 	sts	0x021C, r25	; 0x80021c <temp+0x1>
    1498:	80 93 1b 02 	sts	0x021B, r24	; 0x80021b <temp>
    149c:	40 91 1b 02 	lds	r20, 0x021B	; 0x80021b <temp>
    14a0:	50 91 1c 02 	lds	r21, 0x021C	; 0x80021c <temp+0x1>
    14a4:	9a 01       	movw	r18, r20
    14a6:	ad ec       	ldi	r26, 0xCD	; 205
    14a8:	bc ec       	ldi	r27, 0xCC	; 204
    14aa:	0e 94 5c 19 	call	0x32b8	; 0x32b8 <__umulhisi3>
    14ae:	96 95       	lsr	r25
    14b0:	87 95       	ror	r24
    14b2:	96 95       	lsr	r25
    14b4:	87 95       	ror	r24
    14b6:	96 95       	lsr	r25
    14b8:	87 95       	ror	r24
    14ba:	88 0f       	add	r24, r24
    14bc:	99 1f       	adc	r25, r25
    14be:	9c 01       	movw	r18, r24
    14c0:	22 0f       	add	r18, r18
    14c2:	33 1f       	adc	r19, r19
    14c4:	22 0f       	add	r18, r18
    14c6:	33 1f       	adc	r19, r19
    14c8:	82 0f       	add	r24, r18
    14ca:	93 1f       	adc	r25, r19
    14cc:	9a 01       	movw	r18, r20
    14ce:	28 1b       	sub	r18, r24
    14d0:	39 0b       	sbc	r19, r25
    14d2:	c9 01       	movw	r24, r18
    14d4:	c0 96       	adiw	r24, 0x30	; 48
    14d6:	90 93 ff 02 	sts	0x02FF, r25	; 0x8002ff <thousand+0x1>
    14da:	80 93 fe 02 	sts	0x02FE, r24	; 0x8002fe <thousand>
    14de:	80 91 fe 02 	lds	r24, 0x02FE	; 0x8002fe <thousand>
    14e2:	90 91 ff 02 	lds	r25, 0x02FF	; 0x8002ff <thousand+0x1>
    14e6:	cc dd       	rcall	.-1128   	; 0x1080 <lcd_wr_char>
    14e8:	81 e0       	ldi	r24, 0x01	; 1
    14ea:	89 83       	std	Y+1, r24	; 0x01
    14ec:	8e 81       	ldd	r24, Y+6	; 0x06
    14ee:	9f 81       	ldd	r25, Y+7	; 0x07
    14f0:	03 97       	sbiw	r24, 0x03	; 3
    14f2:	19 f0       	breq	.+6      	; 0x14fa <lcd_print+0x120>
    14f4:	89 81       	ldd	r24, Y+1	; 0x01
    14f6:	81 30       	cpi	r24, 0x01	; 1
    14f8:	c9 f5       	brne	.+114    	; 0x156c <lcd_print+0x192>
    14fa:	8c 81       	ldd	r24, Y+4	; 0x04
    14fc:	9d 81       	ldd	r25, Y+5	; 0x05
    14fe:	96 95       	lsr	r25
    1500:	87 95       	ror	r24
    1502:	96 95       	lsr	r25
    1504:	87 95       	ror	r24
    1506:	9c 01       	movw	r18, r24
    1508:	ab e7       	ldi	r26, 0x7B	; 123
    150a:	b4 e1       	ldi	r27, 0x14	; 20
    150c:	0e 94 5c 19 	call	0x32b8	; 0x32b8 <__umulhisi3>
    1510:	96 95       	lsr	r25
    1512:	87 95       	ror	r24
    1514:	90 93 1c 02 	sts	0x021C, r25	; 0x80021c <temp+0x1>
    1518:	80 93 1b 02 	sts	0x021B, r24	; 0x80021b <temp>
    151c:	40 91 1b 02 	lds	r20, 0x021B	; 0x80021b <temp>
    1520:	50 91 1c 02 	lds	r21, 0x021C	; 0x80021c <temp+0x1>
    1524:	9a 01       	movw	r18, r20
    1526:	ad ec       	ldi	r26, 0xCD	; 205
    1528:	bc ec       	ldi	r27, 0xCC	; 204
    152a:	0e 94 5c 19 	call	0x32b8	; 0x32b8 <__umulhisi3>
    152e:	96 95       	lsr	r25
    1530:	87 95       	ror	r24
    1532:	96 95       	lsr	r25
    1534:	87 95       	ror	r24
    1536:	96 95       	lsr	r25
    1538:	87 95       	ror	r24
    153a:	88 0f       	add	r24, r24
    153c:	99 1f       	adc	r25, r25
    153e:	9c 01       	movw	r18, r24
    1540:	22 0f       	add	r18, r18
    1542:	33 1f       	adc	r19, r19
    1544:	22 0f       	add	r18, r18
    1546:	33 1f       	adc	r19, r19
    1548:	82 0f       	add	r24, r18
    154a:	93 1f       	adc	r25, r19
    154c:	9a 01       	movw	r18, r20
    154e:	28 1b       	sub	r18, r24
    1550:	39 0b       	sbc	r19, r25
    1552:	c9 01       	movw	r24, r18
    1554:	c0 96       	adiw	r24, 0x30	; 48
    1556:	90 93 59 02 	sts	0x0259, r25	; 0x800259 <hundred+0x1>
    155a:	80 93 58 02 	sts	0x0258, r24	; 0x800258 <hundred>
    155e:	80 91 58 02 	lds	r24, 0x0258	; 0x800258 <hundred>
    1562:	90 91 59 02 	lds	r25, 0x0259	; 0x800259 <hundred+0x1>
    1566:	8c dd       	rcall	.-1256   	; 0x1080 <lcd_wr_char>
    1568:	81 e0       	ldi	r24, 0x01	; 1
    156a:	89 83       	std	Y+1, r24	; 0x01
    156c:	8e 81       	ldd	r24, Y+6	; 0x06
    156e:	9f 81       	ldd	r25, Y+7	; 0x07
    1570:	02 97       	sbiw	r24, 0x02	; 2
    1572:	19 f0       	breq	.+6      	; 0x157a <lcd_print+0x1a0>
    1574:	89 81       	ldd	r24, Y+1	; 0x01
    1576:	81 30       	cpi	r24, 0x01	; 1
    1578:	c9 f5       	brne	.+114    	; 0x15ec <lcd_print+0x212>
    157a:	8c 81       	ldd	r24, Y+4	; 0x04
    157c:	9d 81       	ldd	r25, Y+5	; 0x05
    157e:	9c 01       	movw	r18, r24
    1580:	ad ec       	ldi	r26, 0xCD	; 205
    1582:	bc ec       	ldi	r27, 0xCC	; 204
    1584:	0e 94 5c 19 	call	0x32b8	; 0x32b8 <__umulhisi3>
    1588:	96 95       	lsr	r25
    158a:	87 95       	ror	r24
    158c:	96 95       	lsr	r25
    158e:	87 95       	ror	r24
    1590:	96 95       	lsr	r25
    1592:	87 95       	ror	r24
    1594:	90 93 1c 02 	sts	0x021C, r25	; 0x80021c <temp+0x1>
    1598:	80 93 1b 02 	sts	0x021B, r24	; 0x80021b <temp>
    159c:	40 91 1b 02 	lds	r20, 0x021B	; 0x80021b <temp>
    15a0:	50 91 1c 02 	lds	r21, 0x021C	; 0x80021c <temp+0x1>
    15a4:	9a 01       	movw	r18, r20
    15a6:	ad ec       	ldi	r26, 0xCD	; 205
    15a8:	bc ec       	ldi	r27, 0xCC	; 204
    15aa:	0e 94 5c 19 	call	0x32b8	; 0x32b8 <__umulhisi3>
    15ae:	96 95       	lsr	r25
    15b0:	87 95       	ror	r24
    15b2:	96 95       	lsr	r25
    15b4:	87 95       	ror	r24
    15b6:	96 95       	lsr	r25
    15b8:	87 95       	ror	r24
    15ba:	88 0f       	add	r24, r24
    15bc:	99 1f       	adc	r25, r25
    15be:	9c 01       	movw	r18, r24
    15c0:	22 0f       	add	r18, r18
    15c2:	33 1f       	adc	r19, r19
    15c4:	22 0f       	add	r18, r18
    15c6:	33 1f       	adc	r19, r19
    15c8:	82 0f       	add	r24, r18
    15ca:	93 1f       	adc	r25, r19
    15cc:	9a 01       	movw	r18, r20
    15ce:	28 1b       	sub	r18, r24
    15d0:	39 0b       	sbc	r19, r25
    15d2:	c9 01       	movw	r24, r18
    15d4:	c0 96       	adiw	r24, 0x30	; 48
    15d6:	90 93 57 02 	sts	0x0257, r25	; 0x800257 <tens+0x1>
    15da:	80 93 56 02 	sts	0x0256, r24	; 0x800256 <tens>
    15de:	80 91 56 02 	lds	r24, 0x0256	; 0x800256 <tens>
    15e2:	90 91 57 02 	lds	r25, 0x0257	; 0x800257 <tens+0x1>
    15e6:	4c dd       	rcall	.-1384   	; 0x1080 <lcd_wr_char>
    15e8:	81 e0       	ldi	r24, 0x01	; 1
    15ea:	89 83       	std	Y+1, r24	; 0x01
    15ec:	8e 81       	ldd	r24, Y+6	; 0x06
    15ee:	9f 81       	ldd	r25, Y+7	; 0x07
    15f0:	01 97       	sbiw	r24, 0x01	; 1
    15f2:	19 f0       	breq	.+6      	; 0x15fa <lcd_print+0x220>
    15f4:	89 81       	ldd	r24, Y+1	; 0x01
    15f6:	81 30       	cpi	r24, 0x01	; 1
    15f8:	21 f5       	brne	.+72     	; 0x1642 <lcd_print+0x268>
    15fa:	4c 81       	ldd	r20, Y+4	; 0x04
    15fc:	5d 81       	ldd	r21, Y+5	; 0x05
    15fe:	9a 01       	movw	r18, r20
    1600:	ad ec       	ldi	r26, 0xCD	; 205
    1602:	bc ec       	ldi	r27, 0xCC	; 204
    1604:	0e 94 5c 19 	call	0x32b8	; 0x32b8 <__umulhisi3>
    1608:	96 95       	lsr	r25
    160a:	87 95       	ror	r24
    160c:	96 95       	lsr	r25
    160e:	87 95       	ror	r24
    1610:	96 95       	lsr	r25
    1612:	87 95       	ror	r24
    1614:	88 0f       	add	r24, r24
    1616:	99 1f       	adc	r25, r25
    1618:	9c 01       	movw	r18, r24
    161a:	22 0f       	add	r18, r18
    161c:	33 1f       	adc	r19, r19
    161e:	22 0f       	add	r18, r18
    1620:	33 1f       	adc	r19, r19
    1622:	82 0f       	add	r24, r18
    1624:	93 1f       	adc	r25, r19
    1626:	9a 01       	movw	r18, r20
    1628:	28 1b       	sub	r18, r24
    162a:	39 0b       	sbc	r19, r25
    162c:	c9 01       	movw	r24, r18
    162e:	c0 96       	adiw	r24, 0x30	; 48
    1630:	90 93 fd 02 	sts	0x02FD, r25	; 0x8002fd <unit+0x1>
    1634:	80 93 fc 02 	sts	0x02FC, r24	; 0x8002fc <unit>
    1638:	80 91 fc 02 	lds	r24, 0x02FC	; 0x8002fc <unit>
    163c:	90 91 fd 02 	lds	r25, 0x02FD	; 0x8002fd <unit+0x1>
    1640:	1f dd       	rcall	.-1474   	; 0x1080 <lcd_wr_char>
    1642:	8e 81       	ldd	r24, Y+6	; 0x06
    1644:	9f 81       	ldd	r25, Y+7	; 0x07
    1646:	06 97       	sbiw	r24, 0x06	; 6
    1648:	14 f0       	brlt	.+4      	; 0x164e <lcd_print+0x274>
    164a:	85 e4       	ldi	r24, 0x45	; 69
    164c:	19 dd       	rcall	.-1486   	; 0x1080 <lcd_wr_char>
    164e:	00 00       	nop
    1650:	27 96       	adiw	r28, 0x07	; 7
    1652:	0f b6       	in	r0, 0x3f	; 63
    1654:	f8 94       	cli
    1656:	de bf       	out	0x3e, r29	; 62
    1658:	0f be       	out	0x3f, r0	; 63
    165a:	cd bf       	out	0x3d, r28	; 61
    165c:	df 91       	pop	r29
    165e:	cf 91       	pop	r28
    1660:	08 95       	ret

00001662 <lcd_port_config>:
    1662:	cf 93       	push	r28
    1664:	df 93       	push	r29
    1666:	cd b7       	in	r28, 0x3d	; 61
    1668:	de b7       	in	r29, 0x3e	; 62
    166a:	87 e2       	ldi	r24, 0x27	; 39
    166c:	90 e0       	ldi	r25, 0x00	; 0
    166e:	27 e2       	ldi	r18, 0x27	; 39
    1670:	30 e0       	ldi	r19, 0x00	; 0
    1672:	f9 01       	movw	r30, r18
    1674:	20 81       	ld	r18, Z
    1676:	27 6f       	ori	r18, 0xF7	; 247
    1678:	fc 01       	movw	r30, r24
    167a:	20 83       	st	Z, r18
    167c:	88 e2       	ldi	r24, 0x28	; 40
    167e:	90 e0       	ldi	r25, 0x00	; 0
    1680:	28 e2       	ldi	r18, 0x28	; 40
    1682:	30 e0       	ldi	r19, 0x00	; 0
    1684:	f9 01       	movw	r30, r18
    1686:	20 81       	ld	r18, Z
    1688:	20 74       	andi	r18, 0x40	; 64
    168a:	fc 01       	movw	r30, r24
    168c:	20 83       	st	Z, r18
    168e:	00 00       	nop
    1690:	df 91       	pop	r29
    1692:	cf 91       	pop	r28
    1694:	08 95       	ret

00001696 <adc_pin_config>:
    1696:	cf 93       	push	r28
    1698:	df 93       	push	r29
    169a:	cd b7       	in	r28, 0x3d	; 61
    169c:	de b7       	in	r29, 0x3e	; 62
    169e:	80 e3       	ldi	r24, 0x30	; 48
    16a0:	90 e0       	ldi	r25, 0x00	; 0
    16a2:	fc 01       	movw	r30, r24
    16a4:	10 82       	st	Z, r1
    16a6:	81 e3       	ldi	r24, 0x31	; 49
    16a8:	90 e0       	ldi	r25, 0x00	; 0
    16aa:	fc 01       	movw	r30, r24
    16ac:	10 82       	st	Z, r1
    16ae:	87 e0       	ldi	r24, 0x07	; 7
    16b0:	91 e0       	ldi	r25, 0x01	; 1
    16b2:	fc 01       	movw	r30, r24
    16b4:	10 82       	st	Z, r1
    16b6:	88 e0       	ldi	r24, 0x08	; 8
    16b8:	91 e0       	ldi	r25, 0x01	; 1
    16ba:	fc 01       	movw	r30, r24
    16bc:	10 82       	st	Z, r1
    16be:	00 00       	nop
    16c0:	df 91       	pop	r29
    16c2:	cf 91       	pop	r28
    16c4:	08 95       	ret

000016c6 <motion_pin_config>:
    16c6:	cf 93       	push	r28
    16c8:	df 93       	push	r29
    16ca:	cd b7       	in	r28, 0x3d	; 61
    16cc:	de b7       	in	r29, 0x3e	; 62
    16ce:	81 e2       	ldi	r24, 0x21	; 33
    16d0:	90 e0       	ldi	r25, 0x00	; 0
    16d2:	21 e2       	ldi	r18, 0x21	; 33
    16d4:	30 e0       	ldi	r19, 0x00	; 0
    16d6:	f9 01       	movw	r30, r18
    16d8:	20 81       	ld	r18, Z
    16da:	2f 60       	ori	r18, 0x0F	; 15
    16dc:	fc 01       	movw	r30, r24
    16de:	20 83       	st	Z, r18
    16e0:	82 e2       	ldi	r24, 0x22	; 34
    16e2:	90 e0       	ldi	r25, 0x00	; 0
    16e4:	22 e2       	ldi	r18, 0x22	; 34
    16e6:	30 e0       	ldi	r19, 0x00	; 0
    16e8:	f9 01       	movw	r30, r18
    16ea:	20 81       	ld	r18, Z
    16ec:	20 7f       	andi	r18, 0xF0	; 240
    16ee:	fc 01       	movw	r30, r24
    16f0:	20 83       	st	Z, r18
    16f2:	8a e0       	ldi	r24, 0x0A	; 10
    16f4:	91 e0       	ldi	r25, 0x01	; 1
    16f6:	2a e0       	ldi	r18, 0x0A	; 10
    16f8:	31 e0       	ldi	r19, 0x01	; 1
    16fa:	f9 01       	movw	r30, r18
    16fc:	20 81       	ld	r18, Z
    16fe:	28 61       	ori	r18, 0x18	; 24
    1700:	fc 01       	movw	r30, r24
    1702:	20 83       	st	Z, r18
    1704:	8b e0       	ldi	r24, 0x0B	; 11
    1706:	91 e0       	ldi	r25, 0x01	; 1
    1708:	2b e0       	ldi	r18, 0x0B	; 11
    170a:	31 e0       	ldi	r19, 0x01	; 1
    170c:	f9 01       	movw	r30, r18
    170e:	20 81       	ld	r18, Z
    1710:	28 61       	ori	r18, 0x18	; 24
    1712:	fc 01       	movw	r30, r24
    1714:	20 83       	st	Z, r18
    1716:	00 00       	nop
    1718:	df 91       	pop	r29
    171a:	cf 91       	pop	r28
    171c:	08 95       	ret

0000171e <left_encoder_pin_config>:
    171e:	cf 93       	push	r28
    1720:	df 93       	push	r29
    1722:	cd b7       	in	r28, 0x3d	; 61
    1724:	de b7       	in	r29, 0x3e	; 62
    1726:	8d e2       	ldi	r24, 0x2D	; 45
    1728:	90 e0       	ldi	r25, 0x00	; 0
    172a:	2d e2       	ldi	r18, 0x2D	; 45
    172c:	30 e0       	ldi	r19, 0x00	; 0
    172e:	f9 01       	movw	r30, r18
    1730:	20 81       	ld	r18, Z
    1732:	2f 7e       	andi	r18, 0xEF	; 239
    1734:	fc 01       	movw	r30, r24
    1736:	20 83       	st	Z, r18
    1738:	8e e2       	ldi	r24, 0x2E	; 46
    173a:	90 e0       	ldi	r25, 0x00	; 0
    173c:	2e e2       	ldi	r18, 0x2E	; 46
    173e:	30 e0       	ldi	r19, 0x00	; 0
    1740:	f9 01       	movw	r30, r18
    1742:	20 81       	ld	r18, Z
    1744:	20 61       	ori	r18, 0x10	; 16
    1746:	fc 01       	movw	r30, r24
    1748:	20 83       	st	Z, r18
    174a:	00 00       	nop
    174c:	df 91       	pop	r29
    174e:	cf 91       	pop	r28
    1750:	08 95       	ret

00001752 <right_encoder_pin_config>:
    1752:	cf 93       	push	r28
    1754:	df 93       	push	r29
    1756:	cd b7       	in	r28, 0x3d	; 61
    1758:	de b7       	in	r29, 0x3e	; 62
    175a:	8d e2       	ldi	r24, 0x2D	; 45
    175c:	90 e0       	ldi	r25, 0x00	; 0
    175e:	2d e2       	ldi	r18, 0x2D	; 45
    1760:	30 e0       	ldi	r19, 0x00	; 0
    1762:	f9 01       	movw	r30, r18
    1764:	20 81       	ld	r18, Z
    1766:	2f 7d       	andi	r18, 0xDF	; 223
    1768:	fc 01       	movw	r30, r24
    176a:	20 83       	st	Z, r18
    176c:	8e e2       	ldi	r24, 0x2E	; 46
    176e:	90 e0       	ldi	r25, 0x00	; 0
    1770:	2e e2       	ldi	r18, 0x2E	; 46
    1772:	30 e0       	ldi	r19, 0x00	; 0
    1774:	f9 01       	movw	r30, r18
    1776:	20 81       	ld	r18, Z
    1778:	20 62       	ori	r18, 0x20	; 32
    177a:	fc 01       	movw	r30, r24
    177c:	20 83       	st	Z, r18
    177e:	00 00       	nop
    1780:	df 91       	pop	r29
    1782:	cf 91       	pop	r28
    1784:	08 95       	ret

00001786 <port_init>:
    1786:	cf 93       	push	r28
    1788:	df 93       	push	r29
    178a:	cd b7       	in	r28, 0x3d	; 61
    178c:	de b7       	in	r29, 0x3e	; 62
    178e:	83 df       	rcall	.-250    	; 0x1696 <adc_pin_config>
    1790:	9a df       	rcall	.-204    	; 0x16c6 <motion_pin_config>
    1792:	67 df       	rcall	.-306    	; 0x1662 <lcd_port_config>
    1794:	c4 df       	rcall	.-120    	; 0x171e <left_encoder_pin_config>
    1796:	dd df       	rcall	.-70     	; 0x1752 <right_encoder_pin_config>
    1798:	00 00       	nop
    179a:	df 91       	pop	r29
    179c:	cf 91       	pop	r28
    179e:	08 95       	ret

000017a0 <left_position_encoder_interrupt_init>:
    17a0:	cf 93       	push	r28
    17a2:	df 93       	push	r29
    17a4:	cd b7       	in	r28, 0x3d	; 61
    17a6:	de b7       	in	r29, 0x3e	; 62
    17a8:	f8 94       	cli
    17aa:	8a e6       	ldi	r24, 0x6A	; 106
    17ac:	90 e0       	ldi	r25, 0x00	; 0
    17ae:	2a e6       	ldi	r18, 0x6A	; 106
    17b0:	30 e0       	ldi	r19, 0x00	; 0
    17b2:	f9 01       	movw	r30, r18
    17b4:	20 81       	ld	r18, Z
    17b6:	22 60       	ori	r18, 0x02	; 2
    17b8:	fc 01       	movw	r30, r24
    17ba:	20 83       	st	Z, r18
    17bc:	8d e3       	ldi	r24, 0x3D	; 61
    17be:	90 e0       	ldi	r25, 0x00	; 0
    17c0:	2d e3       	ldi	r18, 0x3D	; 61
    17c2:	30 e0       	ldi	r19, 0x00	; 0
    17c4:	f9 01       	movw	r30, r18
    17c6:	20 81       	ld	r18, Z
    17c8:	20 61       	ori	r18, 0x10	; 16
    17ca:	fc 01       	movw	r30, r24
    17cc:	20 83       	st	Z, r18
    17ce:	78 94       	sei
    17d0:	00 00       	nop
    17d2:	df 91       	pop	r29
    17d4:	cf 91       	pop	r28
    17d6:	08 95       	ret

000017d8 <right_position_encoder_interrupt_init>:
    17d8:	cf 93       	push	r28
    17da:	df 93       	push	r29
    17dc:	cd b7       	in	r28, 0x3d	; 61
    17de:	de b7       	in	r29, 0x3e	; 62
    17e0:	f8 94       	cli
    17e2:	8a e6       	ldi	r24, 0x6A	; 106
    17e4:	90 e0       	ldi	r25, 0x00	; 0
    17e6:	2a e6       	ldi	r18, 0x6A	; 106
    17e8:	30 e0       	ldi	r19, 0x00	; 0
    17ea:	f9 01       	movw	r30, r18
    17ec:	20 81       	ld	r18, Z
    17ee:	28 60       	ori	r18, 0x08	; 8
    17f0:	fc 01       	movw	r30, r24
    17f2:	20 83       	st	Z, r18
    17f4:	8d e3       	ldi	r24, 0x3D	; 61
    17f6:	90 e0       	ldi	r25, 0x00	; 0
    17f8:	2d e3       	ldi	r18, 0x3D	; 61
    17fa:	30 e0       	ldi	r19, 0x00	; 0
    17fc:	f9 01       	movw	r30, r18
    17fe:	20 81       	ld	r18, Z
    1800:	20 62       	ori	r18, 0x20	; 32
    1802:	fc 01       	movw	r30, r24
    1804:	20 83       	st	Z, r18
    1806:	78 94       	sei
    1808:	00 00       	nop
    180a:	df 91       	pop	r29
    180c:	cf 91       	pop	r28
    180e:	08 95       	ret

00001810 <__vector_6>:
    1810:	1f 92       	push	r1
    1812:	0f 92       	push	r0
    1814:	00 90 5f 00 	lds	r0, 0x005F	; 0x80005f <__TEXT_REGION_LENGTH__+0x70005f>
    1818:	0f 92       	push	r0
    181a:	11 24       	eor	r1, r1
    181c:	8f 93       	push	r24
    181e:	9f 93       	push	r25
    1820:	af 93       	push	r26
    1822:	bf 93       	push	r27
    1824:	cf 93       	push	r28
    1826:	df 93       	push	r29
    1828:	cd b7       	in	r28, 0x3d	; 61
    182a:	de b7       	in	r29, 0x3e	; 62
    182c:	80 91 13 02 	lds	r24, 0x0213	; 0x800213 <ShaftCountRight>
    1830:	90 91 14 02 	lds	r25, 0x0214	; 0x800214 <ShaftCountRight+0x1>
    1834:	a0 91 15 02 	lds	r26, 0x0215	; 0x800215 <ShaftCountRight+0x2>
    1838:	b0 91 16 02 	lds	r27, 0x0216	; 0x800216 <ShaftCountRight+0x3>
    183c:	01 96       	adiw	r24, 0x01	; 1
    183e:	a1 1d       	adc	r26, r1
    1840:	b1 1d       	adc	r27, r1
    1842:	80 93 13 02 	sts	0x0213, r24	; 0x800213 <ShaftCountRight>
    1846:	90 93 14 02 	sts	0x0214, r25	; 0x800214 <ShaftCountRight+0x1>
    184a:	a0 93 15 02 	sts	0x0215, r26	; 0x800215 <ShaftCountRight+0x2>
    184e:	b0 93 16 02 	sts	0x0216, r27	; 0x800216 <ShaftCountRight+0x3>
    1852:	00 00       	nop
    1854:	df 91       	pop	r29
    1856:	cf 91       	pop	r28
    1858:	bf 91       	pop	r27
    185a:	af 91       	pop	r26
    185c:	9f 91       	pop	r25
    185e:	8f 91       	pop	r24
    1860:	0f 90       	pop	r0
    1862:	00 92 5f 00 	sts	0x005F, r0	; 0x80005f <__TEXT_REGION_LENGTH__+0x70005f>
    1866:	0f 90       	pop	r0
    1868:	1f 90       	pop	r1
    186a:	18 95       	reti

0000186c <__vector_5>:
    186c:	1f 92       	push	r1
    186e:	0f 92       	push	r0
    1870:	00 90 5f 00 	lds	r0, 0x005F	; 0x80005f <__TEXT_REGION_LENGTH__+0x70005f>
    1874:	0f 92       	push	r0
    1876:	11 24       	eor	r1, r1
    1878:	8f 93       	push	r24
    187a:	9f 93       	push	r25
    187c:	af 93       	push	r26
    187e:	bf 93       	push	r27
    1880:	cf 93       	push	r28
    1882:	df 93       	push	r29
    1884:	cd b7       	in	r28, 0x3d	; 61
    1886:	de b7       	in	r29, 0x3e	; 62
    1888:	80 91 0f 02 	lds	r24, 0x020F	; 0x80020f <ShaftCountLeft>
    188c:	90 91 10 02 	lds	r25, 0x0210	; 0x800210 <ShaftCountLeft+0x1>
    1890:	a0 91 11 02 	lds	r26, 0x0211	; 0x800211 <ShaftCountLeft+0x2>
    1894:	b0 91 12 02 	lds	r27, 0x0212	; 0x800212 <ShaftCountLeft+0x3>
    1898:	01 96       	adiw	r24, 0x01	; 1
    189a:	a1 1d       	adc	r26, r1
    189c:	b1 1d       	adc	r27, r1
    189e:	80 93 0f 02 	sts	0x020F, r24	; 0x80020f <ShaftCountLeft>
    18a2:	90 93 10 02 	sts	0x0210, r25	; 0x800210 <ShaftCountLeft+0x1>
    18a6:	a0 93 11 02 	sts	0x0211, r26	; 0x800211 <ShaftCountLeft+0x2>
    18aa:	b0 93 12 02 	sts	0x0212, r27	; 0x800212 <ShaftCountLeft+0x3>
    18ae:	00 00       	nop
    18b0:	df 91       	pop	r29
    18b2:	cf 91       	pop	r28
    18b4:	bf 91       	pop	r27
    18b6:	af 91       	pop	r26
    18b8:	9f 91       	pop	r25
    18ba:	8f 91       	pop	r24
    18bc:	0f 90       	pop	r0
    18be:	00 92 5f 00 	sts	0x005F, r0	; 0x80005f <__TEXT_REGION_LENGTH__+0x70005f>
    18c2:	0f 90       	pop	r0
    18c4:	1f 90       	pop	r1
    18c6:	18 95       	reti

000018c8 <timer5_init>:
    18c8:	cf 93       	push	r28
    18ca:	df 93       	push	r29
    18cc:	cd b7       	in	r28, 0x3d	; 61
    18ce:	de b7       	in	r29, 0x3e	; 62
    18d0:	81 e2       	ldi	r24, 0x21	; 33
    18d2:	91 e0       	ldi	r25, 0x01	; 1
    18d4:	fc 01       	movw	r30, r24
    18d6:	10 82       	st	Z, r1
    18d8:	85 e2       	ldi	r24, 0x25	; 37
    18da:	91 e0       	ldi	r25, 0x01	; 1
    18dc:	2f ef       	ldi	r18, 0xFF	; 255
    18de:	fc 01       	movw	r30, r24
    18e0:	20 83       	st	Z, r18
    18e2:	84 e2       	ldi	r24, 0x24	; 36
    18e4:	91 e0       	ldi	r25, 0x01	; 1
    18e6:	21 e0       	ldi	r18, 0x01	; 1
    18e8:	fc 01       	movw	r30, r24
    18ea:	20 83       	st	Z, r18
    18ec:	89 e2       	ldi	r24, 0x29	; 41
    18ee:	91 e0       	ldi	r25, 0x01	; 1
    18f0:	fc 01       	movw	r30, r24
    18f2:	10 82       	st	Z, r1
    18f4:	88 e2       	ldi	r24, 0x28	; 40
    18f6:	91 e0       	ldi	r25, 0x01	; 1
    18f8:	2f ef       	ldi	r18, 0xFF	; 255
    18fa:	fc 01       	movw	r30, r24
    18fc:	20 83       	st	Z, r18
    18fe:	8b e2       	ldi	r24, 0x2B	; 43
    1900:	91 e0       	ldi	r25, 0x01	; 1
    1902:	fc 01       	movw	r30, r24
    1904:	10 82       	st	Z, r1
    1906:	8a e2       	ldi	r24, 0x2A	; 42
    1908:	91 e0       	ldi	r25, 0x01	; 1
    190a:	2f ef       	ldi	r18, 0xFF	; 255
    190c:	fc 01       	movw	r30, r24
    190e:	20 83       	st	Z, r18
    1910:	8d e2       	ldi	r24, 0x2D	; 45
    1912:	91 e0       	ldi	r25, 0x01	; 1
    1914:	fc 01       	movw	r30, r24
    1916:	10 82       	st	Z, r1
    1918:	8c e2       	ldi	r24, 0x2C	; 44
    191a:	91 e0       	ldi	r25, 0x01	; 1
    191c:	2f ef       	ldi	r18, 0xFF	; 255
    191e:	fc 01       	movw	r30, r24
    1920:	20 83       	st	Z, r18
    1922:	80 e2       	ldi	r24, 0x20	; 32
    1924:	91 e0       	ldi	r25, 0x01	; 1
    1926:	29 ea       	ldi	r18, 0xA9	; 169
    1928:	fc 01       	movw	r30, r24
    192a:	20 83       	st	Z, r18
    192c:	81 e2       	ldi	r24, 0x21	; 33
    192e:	91 e0       	ldi	r25, 0x01	; 1
    1930:	2b e0       	ldi	r18, 0x0B	; 11
    1932:	fc 01       	movw	r30, r24
    1934:	20 83       	st	Z, r18
    1936:	00 00       	nop
    1938:	df 91       	pop	r29
    193a:	cf 91       	pop	r28
    193c:	08 95       	ret

0000193e <adc_init>:
    193e:	cf 93       	push	r28
    1940:	df 93       	push	r29
    1942:	cd b7       	in	r28, 0x3d	; 61
    1944:	de b7       	in	r29, 0x3e	; 62
    1946:	8a e7       	ldi	r24, 0x7A	; 122
    1948:	90 e0       	ldi	r25, 0x00	; 0
    194a:	fc 01       	movw	r30, r24
    194c:	10 82       	st	Z, r1
    194e:	8b e7       	ldi	r24, 0x7B	; 123
    1950:	90 e0       	ldi	r25, 0x00	; 0
    1952:	fc 01       	movw	r30, r24
    1954:	10 82       	st	Z, r1
    1956:	8c e7       	ldi	r24, 0x7C	; 124
    1958:	90 e0       	ldi	r25, 0x00	; 0
    195a:	20 e2       	ldi	r18, 0x20	; 32
    195c:	fc 01       	movw	r30, r24
    195e:	20 83       	st	Z, r18
    1960:	80 e5       	ldi	r24, 0x50	; 80
    1962:	90 e0       	ldi	r25, 0x00	; 0
    1964:	20 e4       	ldi	r18, 0x40	; 64
    1966:	fc 01       	movw	r30, r24
    1968:	20 83       	st	Z, r18
    196a:	8a e7       	ldi	r24, 0x7A	; 122
    196c:	90 e0       	ldi	r25, 0x00	; 0
    196e:	26 e8       	ldi	r18, 0x86	; 134
    1970:	fc 01       	movw	r30, r24
    1972:	20 83       	st	Z, r18
    1974:	00 00       	nop
    1976:	df 91       	pop	r29
    1978:	cf 91       	pop	r28
    197a:	08 95       	ret

0000197c <ADC_Conversion>:
    197c:	cf 93       	push	r28
    197e:	df 93       	push	r29
    1980:	1f 92       	push	r1
    1982:	1f 92       	push	r1
    1984:	cd b7       	in	r28, 0x3d	; 61
    1986:	de b7       	in	r29, 0x3e	; 62
    1988:	8a 83       	std	Y+2, r24	; 0x02
    198a:	8a 81       	ldd	r24, Y+2	; 0x02
    198c:	88 30       	cpi	r24, 0x08	; 8
    198e:	28 f0       	brcs	.+10     	; 0x199a <ADC_Conversion+0x1e>
    1990:	8b e7       	ldi	r24, 0x7B	; 123
    1992:	90 e0       	ldi	r25, 0x00	; 0
    1994:	28 e0       	ldi	r18, 0x08	; 8
    1996:	fc 01       	movw	r30, r24
    1998:	20 83       	st	Z, r18
    199a:	8a 81       	ldd	r24, Y+2	; 0x02
    199c:	87 70       	andi	r24, 0x07	; 7
    199e:	8a 83       	std	Y+2, r24	; 0x02
    19a0:	8c e7       	ldi	r24, 0x7C	; 124
    19a2:	90 e0       	ldi	r25, 0x00	; 0
    19a4:	2a 81       	ldd	r18, Y+2	; 0x02
    19a6:	20 62       	ori	r18, 0x20	; 32
    19a8:	fc 01       	movw	r30, r24
    19aa:	20 83       	st	Z, r18
    19ac:	8a e7       	ldi	r24, 0x7A	; 122
    19ae:	90 e0       	ldi	r25, 0x00	; 0
    19b0:	2a e7       	ldi	r18, 0x7A	; 122
    19b2:	30 e0       	ldi	r19, 0x00	; 0
    19b4:	f9 01       	movw	r30, r18
    19b6:	20 81       	ld	r18, Z
    19b8:	20 64       	ori	r18, 0x40	; 64
    19ba:	fc 01       	movw	r30, r24
    19bc:	20 83       	st	Z, r18
    19be:	00 00       	nop
    19c0:	8a e7       	ldi	r24, 0x7A	; 122
    19c2:	90 e0       	ldi	r25, 0x00	; 0
    19c4:	fc 01       	movw	r30, r24
    19c6:	80 81       	ld	r24, Z
    19c8:	88 2f       	mov	r24, r24
    19ca:	90 e0       	ldi	r25, 0x00	; 0
    19cc:	80 71       	andi	r24, 0x10	; 16
    19ce:	99 27       	eor	r25, r25
    19d0:	89 2b       	or	r24, r25
    19d2:	b1 f3       	breq	.-20     	; 0x19c0 <ADC_Conversion+0x44>
    19d4:	89 e7       	ldi	r24, 0x79	; 121
    19d6:	90 e0       	ldi	r25, 0x00	; 0
    19d8:	fc 01       	movw	r30, r24
    19da:	80 81       	ld	r24, Z
    19dc:	89 83       	std	Y+1, r24	; 0x01
    19de:	8a e7       	ldi	r24, 0x7A	; 122
    19e0:	90 e0       	ldi	r25, 0x00	; 0
    19e2:	2a e7       	ldi	r18, 0x7A	; 122
    19e4:	30 e0       	ldi	r19, 0x00	; 0
    19e6:	f9 01       	movw	r30, r18
    19e8:	20 81       	ld	r18, Z
    19ea:	20 61       	ori	r18, 0x10	; 16
    19ec:	fc 01       	movw	r30, r24
    19ee:	20 83       	st	Z, r18
    19f0:	8b e7       	ldi	r24, 0x7B	; 123
    19f2:	90 e0       	ldi	r25, 0x00	; 0
    19f4:	fc 01       	movw	r30, r24
    19f6:	10 82       	st	Z, r1
    19f8:	89 81       	ldd	r24, Y+1	; 0x01
    19fa:	0f 90       	pop	r0
    19fc:	0f 90       	pop	r0
    19fe:	df 91       	pop	r29
    1a00:	cf 91       	pop	r28
    1a02:	08 95       	ret

00001a04 <velocity>:
    1a04:	cf 93       	push	r28
    1a06:	df 93       	push	r29
    1a08:	1f 92       	push	r1
    1a0a:	1f 92       	push	r1
    1a0c:	cd b7       	in	r28, 0x3d	; 61
    1a0e:	de b7       	in	r29, 0x3e	; 62
    1a10:	89 83       	std	Y+1, r24	; 0x01
    1a12:	6a 83       	std	Y+2, r22	; 0x02
    1a14:	88 e2       	ldi	r24, 0x28	; 40
    1a16:	91 e0       	ldi	r25, 0x01	; 1
    1a18:	29 81       	ldd	r18, Y+1	; 0x01
    1a1a:	fc 01       	movw	r30, r24
    1a1c:	20 83       	st	Z, r18
    1a1e:	8a e2       	ldi	r24, 0x2A	; 42
    1a20:	91 e0       	ldi	r25, 0x01	; 1
    1a22:	2a 81       	ldd	r18, Y+2	; 0x02
    1a24:	fc 01       	movw	r30, r24
    1a26:	20 83       	st	Z, r18
    1a28:	00 00       	nop
    1a2a:	0f 90       	pop	r0
    1a2c:	0f 90       	pop	r0
    1a2e:	df 91       	pop	r29
    1a30:	cf 91       	pop	r28
    1a32:	08 95       	ret

00001a34 <motion_set>:
    1a34:	cf 93       	push	r28
    1a36:	df 93       	push	r29
    1a38:	1f 92       	push	r1
    1a3a:	1f 92       	push	r1
    1a3c:	cd b7       	in	r28, 0x3d	; 61
    1a3e:	de b7       	in	r29, 0x3e	; 62
    1a40:	8a 83       	std	Y+2, r24	; 0x02
    1a42:	19 82       	std	Y+1, r1	; 0x01
    1a44:	8a 81       	ldd	r24, Y+2	; 0x02
    1a46:	8f 70       	andi	r24, 0x0F	; 15
    1a48:	8a 83       	std	Y+2, r24	; 0x02
    1a4a:	82 e2       	ldi	r24, 0x22	; 34
    1a4c:	90 e0       	ldi	r25, 0x00	; 0
    1a4e:	fc 01       	movw	r30, r24
    1a50:	80 81       	ld	r24, Z
    1a52:	89 83       	std	Y+1, r24	; 0x01
    1a54:	89 81       	ldd	r24, Y+1	; 0x01
    1a56:	80 7f       	andi	r24, 0xF0	; 240
    1a58:	89 83       	std	Y+1, r24	; 0x01
    1a5a:	99 81       	ldd	r25, Y+1	; 0x01
    1a5c:	8a 81       	ldd	r24, Y+2	; 0x02
    1a5e:	89 2b       	or	r24, r25
    1a60:	89 83       	std	Y+1, r24	; 0x01
    1a62:	82 e2       	ldi	r24, 0x22	; 34
    1a64:	90 e0       	ldi	r25, 0x00	; 0
    1a66:	29 81       	ldd	r18, Y+1	; 0x01
    1a68:	fc 01       	movw	r30, r24
    1a6a:	20 83       	st	Z, r18
    1a6c:	00 00       	nop
    1a6e:	0f 90       	pop	r0
    1a70:	0f 90       	pop	r0
    1a72:	df 91       	pop	r29
    1a74:	cf 91       	pop	r28
    1a76:	08 95       	ret

00001a78 <print_sensor>:
    1a78:	cf 93       	push	r28
    1a7a:	df 93       	push	r29
    1a7c:	00 d0       	rcall	.+0      	; 0x1a7e <print_sensor+0x6>
    1a7e:	cd b7       	in	r28, 0x3d	; 61
    1a80:	de b7       	in	r29, 0x3e	; 62
    1a82:	89 83       	std	Y+1, r24	; 0x01
    1a84:	6a 83       	std	Y+2, r22	; 0x02
    1a86:	4b 83       	std	Y+3, r20	; 0x03
    1a88:	8b 81       	ldd	r24, Y+3	; 0x03
    1a8a:	78 df       	rcall	.-272    	; 0x197c <ADC_Conversion>
    1a8c:	80 93 53 02 	sts	0x0253, r24	; 0x800253 <ADC_Value>
    1a90:	80 91 53 02 	lds	r24, 0x0253	; 0x800253 <ADC_Value>
    1a94:	88 2f       	mov	r24, r24
    1a96:	90 e0       	ldi	r25, 0x00	; 0
    1a98:	23 e0       	ldi	r18, 0x03	; 3
    1a9a:	30 e0       	ldi	r19, 0x00	; 0
    1a9c:	ac 01       	movw	r20, r24
    1a9e:	6a 81       	ldd	r22, Y+2	; 0x02
    1aa0:	89 81       	ldd	r24, Y+1	; 0x01
    1aa2:	9b dc       	rcall	.-1738   	; 0x13da <lcd_print>
    1aa4:	00 00       	nop
    1aa6:	0f 90       	pop	r0
    1aa8:	0f 90       	pop	r0
    1aaa:	0f 90       	pop	r0
    1aac:	df 91       	pop	r29
    1aae:	cf 91       	pop	r28
    1ab0:	08 95       	ret

00001ab2 <forward>:
    1ab2:	cf 93       	push	r28
    1ab4:	df 93       	push	r29
    1ab6:	cd b7       	in	r28, 0x3d	; 61
    1ab8:	de b7       	in	r29, 0x3e	; 62
    1aba:	86 e0       	ldi	r24, 0x06	; 6
    1abc:	bb df       	rcall	.-138    	; 0x1a34 <motion_set>
    1abe:	00 00       	nop
    1ac0:	df 91       	pop	r29
    1ac2:	cf 91       	pop	r28
    1ac4:	08 95       	ret

00001ac6 <stop>:
    1ac6:	cf 93       	push	r28
    1ac8:	df 93       	push	r29
    1aca:	cd b7       	in	r28, 0x3d	; 61
    1acc:	de b7       	in	r29, 0x3e	; 62
    1ace:	80 e0       	ldi	r24, 0x00	; 0
    1ad0:	b1 df       	rcall	.-158    	; 0x1a34 <motion_set>
    1ad2:	00 00       	nop
    1ad4:	df 91       	pop	r29
    1ad6:	cf 91       	pop	r28
    1ad8:	08 95       	ret

00001ada <left>:
    1ada:	cf 93       	push	r28
    1adc:	df 93       	push	r29
    1ade:	cd b7       	in	r28, 0x3d	; 61
    1ae0:	de b7       	in	r29, 0x3e	; 62
    1ae2:	85 e0       	ldi	r24, 0x05	; 5
    1ae4:	a7 df       	rcall	.-178    	; 0x1a34 <motion_set>
    1ae6:	00 00       	nop
    1ae8:	df 91       	pop	r29
    1aea:	cf 91       	pop	r28
    1aec:	08 95       	ret

00001aee <right>:
    1aee:	cf 93       	push	r28
    1af0:	df 93       	push	r29
    1af2:	cd b7       	in	r28, 0x3d	; 61
    1af4:	de b7       	in	r29, 0x3e	; 62
    1af6:	8a e0       	ldi	r24, 0x0A	; 10
    1af8:	9d df       	rcall	.-198    	; 0x1a34 <motion_set>
    1afa:	00 00       	nop
    1afc:	df 91       	pop	r29
    1afe:	cf 91       	pop	r28
    1b00:	08 95       	ret

00001b02 <angle_rotate>:
    1b02:	cf 93       	push	r28
    1b04:	df 93       	push	r29
    1b06:	cd b7       	in	r28, 0x3d	; 61
    1b08:	de b7       	in	r29, 0x3e	; 62
    1b0a:	2a 97       	sbiw	r28, 0x0a	; 10
    1b0c:	0f b6       	in	r0, 0x3f	; 63
    1b0e:	f8 94       	cli
    1b10:	de bf       	out	0x3e, r29	; 62
    1b12:	0f be       	out	0x3f, r0	; 63
    1b14:	cd bf       	out	0x3d, r28	; 61
    1b16:	9a 87       	std	Y+10, r25	; 0x0a
    1b18:	89 87       	std	Y+9, r24	; 0x09
    1b1a:	19 82       	std	Y+1, r1	; 0x01
    1b1c:	1a 82       	std	Y+2, r1	; 0x02
    1b1e:	1b 82       	std	Y+3, r1	; 0x03
    1b20:	1c 82       	std	Y+4, r1	; 0x04
    1b22:	1d 82       	std	Y+5, r1	; 0x05
    1b24:	1e 82       	std	Y+6, r1	; 0x06
    1b26:	1f 82       	std	Y+7, r1	; 0x07
    1b28:	18 86       	std	Y+8, r1	; 0x08
    1b2a:	89 85       	ldd	r24, Y+9	; 0x09
    1b2c:	9a 85       	ldd	r25, Y+10	; 0x0a
    1b2e:	cc 01       	movw	r24, r24
    1b30:	a0 e0       	ldi	r26, 0x00	; 0
    1b32:	b0 e0       	ldi	r27, 0x00	; 0
    1b34:	bc 01       	movw	r22, r24
    1b36:	cd 01       	movw	r24, r26
    1b38:	0e 94 43 18 	call	0x3086	; 0x3086 <__floatunsisf>
    1b3c:	dc 01       	movw	r26, r24
    1b3e:	cb 01       	movw	r24, r22
    1b40:	28 e4       	ldi	r18, 0x48	; 72
    1b42:	31 ee       	ldi	r19, 0xE1	; 225
    1b44:	42 e8       	ldi	r20, 0x82	; 130
    1b46:	50 e4       	ldi	r21, 0x40	; 64
    1b48:	bc 01       	movw	r22, r24
    1b4a:	cd 01       	movw	r24, r26
    1b4c:	0e 94 af 17 	call	0x2f5e	; 0x2f5e <__divsf3>
    1b50:	dc 01       	movw	r26, r24
    1b52:	cb 01       	movw	r24, r22
    1b54:	89 83       	std	Y+1, r24	; 0x01
    1b56:	9a 83       	std	Y+2, r25	; 0x02
    1b58:	ab 83       	std	Y+3, r26	; 0x03
    1b5a:	bc 83       	std	Y+4, r27	; 0x04
    1b5c:	69 81       	ldd	r22, Y+1	; 0x01
    1b5e:	7a 81       	ldd	r23, Y+2	; 0x02
    1b60:	8b 81       	ldd	r24, Y+3	; 0x03
    1b62:	9c 81       	ldd	r25, Y+4	; 0x04
    1b64:	0e 94 17 18 	call	0x302e	; 0x302e <__fixunssfsi>
    1b68:	dc 01       	movw	r26, r24
    1b6a:	cb 01       	movw	r24, r22
    1b6c:	cc 01       	movw	r24, r24
    1b6e:	a0 e0       	ldi	r26, 0x00	; 0
    1b70:	b0 e0       	ldi	r27, 0x00	; 0
    1b72:	8d 83       	std	Y+5, r24	; 0x05
    1b74:	9e 83       	std	Y+6, r25	; 0x06
    1b76:	af 83       	std	Y+7, r26	; 0x07
    1b78:	b8 87       	std	Y+8, r27	; 0x08
    1b7a:	10 92 13 02 	sts	0x0213, r1	; 0x800213 <ShaftCountRight>
    1b7e:	10 92 14 02 	sts	0x0214, r1	; 0x800214 <ShaftCountRight+0x1>
    1b82:	10 92 15 02 	sts	0x0215, r1	; 0x800215 <ShaftCountRight+0x2>
    1b86:	10 92 16 02 	sts	0x0216, r1	; 0x800216 <ShaftCountRight+0x3>
    1b8a:	10 92 0f 02 	sts	0x020F, r1	; 0x80020f <ShaftCountLeft>
    1b8e:	10 92 10 02 	sts	0x0210, r1	; 0x800210 <ShaftCountLeft+0x1>
    1b92:	10 92 11 02 	sts	0x0211, r1	; 0x800211 <ShaftCountLeft+0x2>
    1b96:	10 92 12 02 	sts	0x0212, r1	; 0x800212 <ShaftCountLeft+0x3>
    1b9a:	83 e0       	ldi	r24, 0x03	; 3
    1b9c:	ef de       	rcall	.-546    	; 0x197c <ADC_Conversion>
    1b9e:	8e 31       	cpi	r24, 0x1E	; 30
    1ba0:	e0 f7       	brcc	.-8      	; 0x1b9a <angle_rotate+0x98>
    1ba2:	82 e0       	ldi	r24, 0x02	; 2
    1ba4:	eb de       	rcall	.-554    	; 0x197c <ADC_Conversion>
    1ba6:	8f 31       	cpi	r24, 0x1F	; 31
    1ba8:	c0 f3       	brcs	.-16     	; 0x1b9a <angle_rotate+0x98>
    1baa:	81 e0       	ldi	r24, 0x01	; 1
    1bac:	e7 de       	rcall	.-562    	; 0x197c <ADC_Conversion>
    1bae:	8e 31       	cpi	r24, 0x1E	; 30
    1bb0:	a0 f7       	brcc	.-24     	; 0x1b9a <angle_rotate+0x98>
    1bb2:	60 e0       	ldi	r22, 0x00	; 0
    1bb4:	80 e0       	ldi	r24, 0x00	; 0
    1bb6:	26 df       	rcall	.-436    	; 0x1a04 <velocity>
    1bb8:	00 00       	nop
    1bba:	85 df       	rcall	.-246    	; 0x1ac6 <stop>
    1bbc:	00 00       	nop
    1bbe:	2a 96       	adiw	r28, 0x0a	; 10
    1bc0:	0f b6       	in	r0, 0x3f	; 63
    1bc2:	f8 94       	cli
    1bc4:	de bf       	out	0x3e, r29	; 62
    1bc6:	0f be       	out	0x3f, r0	; 63
    1bc8:	cd bf       	out	0x3d, r28	; 61
    1bca:	df 91       	pop	r29
    1bcc:	cf 91       	pop	r28
    1bce:	08 95       	ret

00001bd0 <linear_distance_mm>:
    1bd0:	cf 93       	push	r28
    1bd2:	df 93       	push	r29
    1bd4:	cd b7       	in	r28, 0x3d	; 61
    1bd6:	de b7       	in	r29, 0x3e	; 62
    1bd8:	2a 97       	sbiw	r28, 0x0a	; 10
    1bda:	0f b6       	in	r0, 0x3f	; 63
    1bdc:	f8 94       	cli
    1bde:	de bf       	out	0x3e, r29	; 62
    1be0:	0f be       	out	0x3f, r0	; 63
    1be2:	cd bf       	out	0x3d, r28	; 61
    1be4:	9a 87       	std	Y+10, r25	; 0x0a
    1be6:	89 87       	std	Y+9, r24	; 0x09
    1be8:	19 82       	std	Y+1, r1	; 0x01
    1bea:	1a 82       	std	Y+2, r1	; 0x02
    1bec:	1b 82       	std	Y+3, r1	; 0x03
    1bee:	1c 82       	std	Y+4, r1	; 0x04
    1bf0:	1d 82       	std	Y+5, r1	; 0x05
    1bf2:	1e 82       	std	Y+6, r1	; 0x06
    1bf4:	1f 82       	std	Y+7, r1	; 0x07
    1bf6:	18 86       	std	Y+8, r1	; 0x08
    1bf8:	89 85       	ldd	r24, Y+9	; 0x09
    1bfa:	9a 85       	ldd	r25, Y+10	; 0x0a
    1bfc:	cc 01       	movw	r24, r24
    1bfe:	a0 e0       	ldi	r26, 0x00	; 0
    1c00:	b0 e0       	ldi	r27, 0x00	; 0
    1c02:	bc 01       	movw	r22, r24
    1c04:	cd 01       	movw	r24, r26
    1c06:	0e 94 43 18 	call	0x3086	; 0x3086 <__floatunsisf>
    1c0a:	dc 01       	movw	r26, r24
    1c0c:	cb 01       	movw	r24, r22
    1c0e:	25 ee       	ldi	r18, 0xE5	; 229
    1c10:	30 ed       	ldi	r19, 0xD0	; 208
    1c12:	4a ea       	ldi	r20, 0xAA	; 170
    1c14:	50 e4       	ldi	r21, 0x40	; 64
    1c16:	bc 01       	movw	r22, r24
    1c18:	cd 01       	movw	r24, r26
    1c1a:	0e 94 af 17 	call	0x2f5e	; 0x2f5e <__divsf3>
    1c1e:	dc 01       	movw	r26, r24
    1c20:	cb 01       	movw	r24, r22
    1c22:	89 83       	std	Y+1, r24	; 0x01
    1c24:	9a 83       	std	Y+2, r25	; 0x02
    1c26:	ab 83       	std	Y+3, r26	; 0x03
    1c28:	bc 83       	std	Y+4, r27	; 0x04
    1c2a:	69 81       	ldd	r22, Y+1	; 0x01
    1c2c:	7a 81       	ldd	r23, Y+2	; 0x02
    1c2e:	8b 81       	ldd	r24, Y+3	; 0x03
    1c30:	9c 81       	ldd	r25, Y+4	; 0x04
    1c32:	0e 94 17 18 	call	0x302e	; 0x302e <__fixunssfsi>
    1c36:	dc 01       	movw	r26, r24
    1c38:	cb 01       	movw	r24, r22
    1c3a:	8d 83       	std	Y+5, r24	; 0x05
    1c3c:	9e 83       	std	Y+6, r25	; 0x06
    1c3e:	af 83       	std	Y+7, r26	; 0x07
    1c40:	b8 87       	std	Y+8, r27	; 0x08
    1c42:	10 92 13 02 	sts	0x0213, r1	; 0x800213 <ShaftCountRight>
    1c46:	10 92 14 02 	sts	0x0214, r1	; 0x800214 <ShaftCountRight+0x1>
    1c4a:	10 92 15 02 	sts	0x0215, r1	; 0x800215 <ShaftCountRight+0x2>
    1c4e:	10 92 16 02 	sts	0x0216, r1	; 0x800216 <ShaftCountRight+0x3>
    1c52:	20 91 13 02 	lds	r18, 0x0213	; 0x800213 <ShaftCountRight>
    1c56:	30 91 14 02 	lds	r19, 0x0214	; 0x800214 <ShaftCountRight+0x1>
    1c5a:	40 91 15 02 	lds	r20, 0x0215	; 0x800215 <ShaftCountRight+0x2>
    1c5e:	50 91 16 02 	lds	r21, 0x0216	; 0x800216 <ShaftCountRight+0x3>
    1c62:	8d 81       	ldd	r24, Y+5	; 0x05
    1c64:	9e 81       	ldd	r25, Y+6	; 0x06
    1c66:	af 81       	ldd	r26, Y+7	; 0x07
    1c68:	b8 85       	ldd	r27, Y+8	; 0x08
    1c6a:	82 17       	cp	r24, r18
    1c6c:	93 07       	cpc	r25, r19
    1c6e:	a4 07       	cpc	r26, r20
    1c70:	b5 07       	cpc	r27, r21
    1c72:	08 f0       	brcs	.+2      	; 0x1c76 <linear_distance_mm+0xa6>
    1c74:	ee cf       	rjmp	.-36     	; 0x1c52 <linear_distance_mm+0x82>
    1c76:	00 00       	nop
    1c78:	26 df       	rcall	.-436    	; 0x1ac6 <stop>
    1c7a:	00 00       	nop
    1c7c:	2a 96       	adiw	r28, 0x0a	; 10
    1c7e:	0f b6       	in	r0, 0x3f	; 63
    1c80:	f8 94       	cli
    1c82:	de bf       	out	0x3e, r29	; 62
    1c84:	0f be       	out	0x3f, r0	; 63
    1c86:	cd bf       	out	0x3d, r28	; 61
    1c88:	df 91       	pop	r29
    1c8a:	cf 91       	pop	r28
    1c8c:	08 95       	ret

00001c8e <forward_mm>:
    1c8e:	cf 93       	push	r28
    1c90:	df 93       	push	r29
    1c92:	1f 92       	push	r1
    1c94:	1f 92       	push	r1
    1c96:	cd b7       	in	r28, 0x3d	; 61
    1c98:	de b7       	in	r29, 0x3e	; 62
    1c9a:	9a 83       	std	Y+2, r25	; 0x02
    1c9c:	89 83       	std	Y+1, r24	; 0x01
    1c9e:	09 df       	rcall	.-494    	; 0x1ab2 <forward>
    1ca0:	89 81       	ldd	r24, Y+1	; 0x01
    1ca2:	9a 81       	ldd	r25, Y+2	; 0x02
    1ca4:	95 df       	rcall	.-214    	; 0x1bd0 <linear_distance_mm>
    1ca6:	00 00       	nop
    1ca8:	0f 90       	pop	r0
    1caa:	0f 90       	pop	r0
    1cac:	df 91       	pop	r29
    1cae:	cf 91       	pop	r28
    1cb0:	08 95       	ret

00001cb2 <left_degrees>:

void left_degrees(unsigned int Degrees)
{
    1cb2:	cf 93       	push	r28
    1cb4:	df 93       	push	r29
    1cb6:	1f 92       	push	r1
    1cb8:	1f 92       	push	r1
    1cba:	cd b7       	in	r28, 0x3d	; 61
    1cbc:	de b7       	in	r29, 0x3e	; 62
    1cbe:	9a 83       	std	Y+2, r25	; 0x02
    1cc0:	89 83       	std	Y+1, r24	; 0x01
	// 88 pulses for 365 degrees rotation 4.090 degrees per count
	left(); //Turn left
    1cc2:	0b df       	rcall	.-490    	; 0x1ada <left>
	angle_rotate(Degrees);
    1cc4:	89 81       	ldd	r24, Y+1	; 0x01
    1cc6:	9a 81       	ldd	r25, Y+2	; 0x02
    1cc8:	1c df       	rcall	.-456    	; 0x1b02 <angle_rotate>
}
    1cca:	00 00       	nop
    1ccc:	0f 90       	pop	r0
    1cce:	0f 90       	pop	r0
    1cd0:	df 91       	pop	r29
    1cd2:	cf 91       	pop	r28
    1cd4:	08 95       	ret

00001cd6 <right_degrees>:

void right_degrees(unsigned int Degrees)
{
    1cd6:	cf 93       	push	r28
    1cd8:	df 93       	push	r29
    1cda:	1f 92       	push	r1
    1cdc:	1f 92       	push	r1
    1cde:	cd b7       	in	r28, 0x3d	; 61
    1ce0:	de b7       	in	r29, 0x3e	; 62
    1ce2:	9a 83       	std	Y+2, r25	; 0x02
    1ce4:	89 83       	std	Y+1, r24	; 0x01
	// 88 pulses for 365 degrees rotation 4.090 degrees per count
	right(); //Turn right
    1ce6:	03 df       	rcall	.-506    	; 0x1aee <right>
	angle_rotate(Degrees);
    1ce8:	89 81       	ldd	r24, Y+1	; 0x01
    1cea:	9a 81       	ldd	r25, Y+2	; 0x02
    1cec:	0a df       	rcall	.-492    	; 0x1b02 <angle_rotate>
}
    1cee:	00 00       	nop
    1cf0:	0f 90       	pop	r0
    1cf2:	0f 90       	pop	r0
    1cf4:	df 91       	pop	r29
    1cf6:	cf 91       	pop	r28
    1cf8:	08 95       	ret

00001cfa <init_devices>:

void init_devices (void)
{
    1cfa:	cf 93       	push	r28
    1cfc:	df 93       	push	r29
    1cfe:	cd b7       	in	r28, 0x3d	; 61
    1d00:	de b7       	in	r29, 0x3e	; 62
 	cli(); //Clears the global interrupts
    1d02:	f8 94       	cli
	port_init();
    1d04:	40 dd       	rcall	.-1408   	; 0x1786 <port_init>
	adc_init();
    1d06:	1b de       	rcall	.-970    	; 0x193e <adc_init>
	timer5_init();
    1d08:	df dd       	rcall	.-1090   	; 0x18c8 <timer5_init>
	left_position_encoder_interrupt_init();
    1d0a:	4a dd       	rcall	.-1388   	; 0x17a0 <left_position_encoder_interrupt_init>
    1d0c:	65 dd       	rcall	.-1334   	; 0x17d8 <right_position_encoder_interrupt_init>
	right_position_encoder_interrupt_init();
    1d0e:	78 94       	sei
    1d10:	00 00       	nop
	sei();   //Enables the global interrupts
    1d12:	df 91       	pop	r29
}
    1d14:	cf 91       	pop	r28
    1d16:	08 95       	ret

00001d18 <assign_cords>:
    1d18:	cf 93       	push	r28
    1d1a:	df 93       	push	r29

void assign_cords()
{
    1d1c:	cd b7       	in	r28, 0x3d	; 61
    1d1e:	de b7       	in	r29, 0x3e	; 62
    1d20:	61 97       	sbiw	r28, 0x11	; 17
    1d22:	0f b6       	in	r0, 0x3f	; 63
    1d24:	f8 94       	cli
    1d26:	de bf       	out	0x3e, r29	; 62
    1d28:	0f be       	out	0x3f, r0	; 63
    1d2a:	cd bf       	out	0x3d, r28	; 61
	unsigned char row_node_count[12]={3,4,4,5,5,6,6,5,5,4,4,3}, i, j, x=-1;
    1d2c:	8c e0       	ldi	r24, 0x0C	; 12
    1d2e:	e0 e0       	ldi	r30, 0x00	; 0
    1d30:	f2 e0       	ldi	r31, 0x02	; 2
    1d32:	de 01       	movw	r26, r28
    1d34:	16 96       	adiw	r26, 0x06	; 6
    1d36:	01 90       	ld	r0, Z+
    1d38:	0d 92       	st	X+, r0
    1d3a:	8a 95       	dec	r24
    1d3c:	e1 f7       	brne	.-8      	; 0x1d36 <assign_cords+0x1e>
    1d3e:	8f ef       	ldi	r24, 0xFF	; 255
    1d40:	8b 83       	std	Y+3, r24	; 0x03
	for(i=0; i<12; i++)
    1d42:	19 82       	std	Y+1, r1	; 0x01
    1d44:	4d c0       	rjmp	.+154    	; 0x1de0 <assign_cords+0xc8>
	{
		int cord = (11-((2*row_node_count[i])-1))/2;
    1d46:	89 81       	ldd	r24, Y+1	; 0x01
    1d48:	88 2f       	mov	r24, r24
    1d4a:	90 e0       	ldi	r25, 0x00	; 0
    1d4c:	9e 01       	movw	r18, r28
    1d4e:	2a 5f       	subi	r18, 0xFA	; 250
    1d50:	3f 4f       	sbci	r19, 0xFF	; 255
    1d52:	82 0f       	add	r24, r18
    1d54:	93 1f       	adc	r25, r19
    1d56:	fc 01       	movw	r30, r24
    1d58:	80 81       	ld	r24, Z
    1d5a:	88 2f       	mov	r24, r24
    1d5c:	90 e0       	ldi	r25, 0x00	; 0
    1d5e:	9c 01       	movw	r18, r24
    1d60:	26 50       	subi	r18, 0x06	; 6
    1d62:	31 09       	sbc	r19, r1
    1d64:	80 e0       	ldi	r24, 0x00	; 0
    1d66:	90 e0       	ldi	r25, 0x00	; 0
    1d68:	82 1b       	sub	r24, r18
    1d6a:	93 0b       	sbc	r25, r19
    1d6c:	88 0f       	add	r24, r24
    1d6e:	99 1f       	adc	r25, r25
    1d70:	99 23       	and	r25, r25
    1d72:	0c f4       	brge	.+2      	; 0x1d76 <assign_cords+0x5e>
    1d74:	01 96       	adiw	r24, 0x01	; 1
    1d76:	95 95       	asr	r25
    1d78:	87 95       	ror	r24
    1d7a:	9d 83       	std	Y+5, r25	; 0x05
    1d7c:	8c 83       	std	Y+4, r24	; 0x04
		for(j=0; j<row_node_count[i]; j++)
    1d7e:	1a 82       	std	Y+2, r1	; 0x02
    1d80:	1f c0       	rjmp	.+62     	; 0x1dc0 <assign_cords+0xa8>
		{
			co_ords[++x].x=cord;
    1d82:	8b 81       	ldd	r24, Y+3	; 0x03
    1d84:	8f 5f       	subi	r24, 0xFF	; 255
    1d86:	8b 83       	std	Y+3, r24	; 0x03
    1d88:	8b 81       	ldd	r24, Y+3	; 0x03
    1d8a:	88 2f       	mov	r24, r24
    1d8c:	90 e0       	ldi	r25, 0x00	; 0
    1d8e:	2c 81       	ldd	r18, Y+4	; 0x04
    1d90:	88 0f       	add	r24, r24
    1d92:	99 1f       	adc	r25, r25
    1d94:	86 5a       	subi	r24, 0xA6	; 166
    1d96:	9d 4f       	sbci	r25, 0xFD	; 253
    1d98:	fc 01       	movw	r30, r24
    1d9a:	20 83       	st	Z, r18
			co_ords[x].y=i;
    1d9c:	8b 81       	ldd	r24, Y+3	; 0x03
    1d9e:	88 2f       	mov	r24, r24
    1da0:	90 e0       	ldi	r25, 0x00	; 0
    1da2:	88 0f       	add	r24, r24
    1da4:	99 1f       	adc	r25, r25
    1da6:	85 5a       	subi	r24, 0xA5	; 165
    1da8:	9d 4f       	sbci	r25, 0xFD	; 253
    1daa:	29 81       	ldd	r18, Y+1	; 0x01
    1dac:	fc 01       	movw	r30, r24
    1dae:	20 83       	st	Z, r18
			cord+=2;
    1db0:	8c 81       	ldd	r24, Y+4	; 0x04
    1db2:	9d 81       	ldd	r25, Y+5	; 0x05
    1db4:	02 96       	adiw	r24, 0x02	; 2
    1db6:	9d 83       	std	Y+5, r25	; 0x05
    1db8:	8c 83       	std	Y+4, r24	; 0x04
{
	unsigned char row_node_count[12]={3,4,4,5,5,6,6,5,5,4,4,3}, i, j, x=-1;
	for(i=0; i<12; i++)
	{
		int cord = (11-((2*row_node_count[i])-1))/2;
		for(j=0; j<row_node_count[i]; j++)
    1dba:	8a 81       	ldd	r24, Y+2	; 0x02
    1dbc:	8f 5f       	subi	r24, 0xFF	; 255
    1dbe:	8a 83       	std	Y+2, r24	; 0x02
    1dc0:	89 81       	ldd	r24, Y+1	; 0x01
    1dc2:	88 2f       	mov	r24, r24
    1dc4:	90 e0       	ldi	r25, 0x00	; 0
    1dc6:	9e 01       	movw	r18, r28
    1dc8:	2a 5f       	subi	r18, 0xFA	; 250
    1dca:	3f 4f       	sbci	r19, 0xFF	; 255
    1dcc:	82 0f       	add	r24, r18
    1dce:	93 1f       	adc	r25, r19
    1dd0:	fc 01       	movw	r30, r24
    1dd2:	90 81       	ld	r25, Z
    1dd4:	8a 81       	ldd	r24, Y+2	; 0x02
    1dd6:	89 17       	cp	r24, r25
    1dd8:	a0 f2       	brcs	.-88     	; 0x1d82 <assign_cords+0x6a>
}

void assign_cords()
{
	unsigned char row_node_count[12]={3,4,4,5,5,6,6,5,5,4,4,3}, i, j, x=-1;
	for(i=0; i<12; i++)
    1dda:	89 81       	ldd	r24, Y+1	; 0x01
    1ddc:	8f 5f       	subi	r24, 0xFF	; 255
    1dde:	89 83       	std	Y+1, r24	; 0x01
    1de0:	89 81       	ldd	r24, Y+1	; 0x01
    1de2:	8c 30       	cpi	r24, 0x0C	; 12
    1de4:	08 f4       	brcc	.+2      	; 0x1de8 <assign_cords+0xd0>
    1de6:	af cf       	rjmp	.-162    	; 0x1d46 <assign_cords+0x2e>
			co_ords[++x].x=cord;
			co_ords[x].y=i;
			cord+=2;
		}
	}
}
    1de8:	00 00       	nop
    1dea:	61 96       	adiw	r28, 0x11	; 17
    1dec:	0f b6       	in	r0, 0x3f	; 63
    1dee:	f8 94       	cli
    1df0:	de bf       	out	0x3e, r29	; 62
    1df2:	0f be       	out	0x3f, r0	; 63
    1df4:	cd bf       	out	0x3d, r28	; 61
    1df6:	df 91       	pop	r29
    1df8:	cf 91       	pop	r28
    1dfa:	08 95       	ret

00001dfc <dijkstra>:

void dijkstra(int src)
{
    1dfc:	cf 93       	push	r28
    1dfe:	df 93       	push	r29
    1e00:	cd b7       	in	r28, 0x3d	; 61
    1e02:	de b7       	in	r29, 0x3e	; 62
    1e04:	c6 50       	subi	r28, 0x06	; 6
    1e06:	d7 41       	sbci	r29, 0x17	; 23
    1e08:	0f b6       	in	r0, 0x3f	; 63
    1e0a:	f8 94       	cli
    1e0c:	de bf       	out	0x3e, r29	; 62
    1e0e:	0f be       	out	0x3f, r0	; 63
    1e10:	cd bf       	out	0x3d, r28	; 61
    1e12:	9e 01       	movw	r18, r28
    1e14:	2b 5f       	subi	r18, 0xFB	; 251
    1e16:	38 4e       	sbci	r19, 0xE8	; 232
    1e18:	d9 01       	movw	r26, r18
    1e1a:	8d 93       	st	X+, r24
    1e1c:	9c 93       	st	X, r25
	unsigned char adj_mat[vertices][vertices]={0,0,0,1,1,0,0,0,0,0,0,0,0,0,0,0,0,0,0,0,0,0,0,0,0,0,0,0,0,0,0,0,0,0,0,0,0,0,0,0,0,0,0,0,0,0,0,0,0,0,0,0,0,0,
    1e1e:	24 e6       	ldi	r18, 0x64	; 100
    1e20:	3b e0       	ldi	r19, 0x0B	; 11
    1e22:	ce 01       	movw	r24, r28
    1e24:	07 96       	adiw	r24, 0x07	; 7
    1e26:	fc 01       	movw	r30, r24
    1e28:	a9 01       	movw	r20, r18
    1e2a:	11 92       	st	Z+, r1
    1e2c:	41 50       	subi	r20, 0x01	; 1
    1e2e:	50 40       	sbci	r21, 0x00	; 0
    1e30:	e1 f7       	brne	.-8      	; 0x1e2a <dijkstra+0x2e>
    1e32:	81 e0       	ldi	r24, 0x01	; 1
    1e34:	8a 87       	std	Y+10, r24	; 0x0a
    1e36:	81 e0       	ldi	r24, 0x01	; 1
    1e38:	8b 87       	std	Y+11, r24	; 0x0b
    1e3a:	ce 01       	movw	r24, r28
    1e3c:	8f 5b       	subi	r24, 0xBF	; 191
    1e3e:	9f 4f       	sbci	r25, 0xFF	; 255
    1e40:	21 e0       	ldi	r18, 0x01	; 1
    1e42:	dc 01       	movw	r26, r24
    1e44:	2c 93       	st	X, r18
    1e46:	ce 01       	movw	r24, r28
    1e48:	8e 5b       	subi	r24, 0xBE	; 190
    1e4a:	9f 4f       	sbci	r25, 0xFF	; 255
    1e4c:	21 e0       	ldi	r18, 0x01	; 1
    1e4e:	fc 01       	movw	r30, r24
    1e50:	20 83       	st	Z, r18
    1e52:	ce 01       	movw	r24, r28
    1e54:	88 58       	subi	r24, 0x88	; 136
    1e56:	9f 4f       	sbci	r25, 0xFF	; 255
    1e58:	21 e0       	ldi	r18, 0x01	; 1
    1e5a:	dc 01       	movw	r26, r24
    1e5c:	2c 93       	st	X, r18
    1e5e:	ce 01       	movw	r24, r28
    1e60:	87 58       	subi	r24, 0x87	; 135
    1e62:	9f 4f       	sbci	r25, 0xFF	; 255
    1e64:	21 e0       	ldi	r18, 0x01	; 1
    1e66:	fc 01       	movw	r30, r24
    1e68:	20 83       	st	Z, r18
    1e6a:	ce 01       	movw	r24, r28
    1e6c:	87 55       	subi	r24, 0x57	; 87
    1e6e:	9f 4f       	sbci	r25, 0xFF	; 255
    1e70:	21 e0       	ldi	r18, 0x01	; 1
    1e72:	dc 01       	movw	r26, r24
    1e74:	2c 93       	st	X, r18
    1e76:	ce 01       	movw	r24, r28
    1e78:	80 55       	subi	r24, 0x50	; 80
    1e7a:	9f 4f       	sbci	r25, 0xFF	; 255
    1e7c:	21 e0       	ldi	r18, 0x01	; 1
    1e7e:	fc 01       	movw	r30, r24
    1e80:	20 83       	st	Z, r18
    1e82:	ce 01       	movw	r24, r28
    1e84:	81 52       	subi	r24, 0x21	; 33
    1e86:	9f 4f       	sbci	r25, 0xFF	; 255
    1e88:	21 e0       	ldi	r18, 0x01	; 1
    1e8a:	dc 01       	movw	r26, r24
    1e8c:	2c 93       	st	X, r18
    1e8e:	ce 01       	movw	r24, r28
    1e90:	80 52       	subi	r24, 0x20	; 32
    1e92:	9f 4f       	sbci	r25, 0xFF	; 255
    1e94:	21 e0       	ldi	r18, 0x01	; 1
    1e96:	fc 01       	movw	r30, r24
    1e98:	20 83       	st	Z, r18
    1e9a:	ce 01       	movw	r24, r28
    1e9c:	89 51       	subi	r24, 0x19	; 25
    1e9e:	9f 4f       	sbci	r25, 0xFF	; 255
    1ea0:	21 e0       	ldi	r18, 0x01	; 1
    1ea2:	dc 01       	movw	r26, r24
    1ea4:	2c 93       	st	X, r18
    1ea6:	ce 01       	movw	r24, r28
    1ea8:	8a 5e       	subi	r24, 0xEA	; 234
    1eaa:	9e 4f       	sbci	r25, 0xFE	; 254
    1eac:	21 e0       	ldi	r18, 0x01	; 1
    1eae:	fc 01       	movw	r30, r24
    1eb0:	20 83       	st	Z, r18
    1eb2:	ce 01       	movw	r24, r28
    1eb4:	89 5e       	subi	r24, 0xE9	; 233
    1eb6:	9e 4f       	sbci	r25, 0xFE	; 254
    1eb8:	21 e0       	ldi	r18, 0x01	; 1
    1eba:	dc 01       	movw	r26, r24
    1ebc:	2c 93       	st	X, r18
    1ebe:	ce 01       	movw	r24, r28
    1ec0:	82 5e       	subi	r24, 0xE2	; 226
    1ec2:	9e 4f       	sbci	r25, 0xFE	; 254
    1ec4:	21 e0       	ldi	r18, 0x01	; 1
    1ec6:	fc 01       	movw	r30, r24
    1ec8:	20 83       	st	Z, r18
    1eca:	ce 01       	movw	r24, r28
    1ecc:	83 5b       	subi	r24, 0xB3	; 179
    1ece:	9e 4f       	sbci	r25, 0xFE	; 254
    1ed0:	21 e0       	ldi	r18, 0x01	; 1
    1ed2:	dc 01       	movw	r26, r24
    1ed4:	2c 93       	st	X, r18
    1ed6:	ce 01       	movw	r24, r28
    1ed8:	8b 5a       	subi	r24, 0xAB	; 171
    1eda:	9e 4f       	sbci	r25, 0xFE	; 254
    1edc:	21 e0       	ldi	r18, 0x01	; 1
    1ede:	fc 01       	movw	r30, r24
    1ee0:	20 83       	st	Z, r18
    1ee2:	ce 01       	movw	r24, r28
    1ee4:	8c 57       	subi	r24, 0x7C	; 124
    1ee6:	9e 4f       	sbci	r25, 0xFE	; 254
    1ee8:	21 e0       	ldi	r18, 0x01	; 1
    1eea:	dc 01       	movw	r26, r24
    1eec:	2c 93       	st	X, r18
    1eee:	ce 01       	movw	r24, r28
    1ef0:	84 57       	subi	r24, 0x74	; 116
    1ef2:	9e 4f       	sbci	r25, 0xFE	; 254
    1ef4:	21 e0       	ldi	r18, 0x01	; 1
    1ef6:	fc 01       	movw	r30, r24
    1ef8:	20 83       	st	Z, r18
    1efa:	ce 01       	movw	r24, r28
    1efc:	83 57       	subi	r24, 0x73	; 115
    1efe:	9e 4f       	sbci	r25, 0xFE	; 254
    1f00:	21 e0       	ldi	r18, 0x01	; 1
    1f02:	dc 01       	movw	r26, r24
    1f04:	2c 93       	st	X, r18
    1f06:	ce 01       	movw	r24, r28
    1f08:	85 54       	subi	r24, 0x45	; 69
    1f0a:	9e 4f       	sbci	r25, 0xFE	; 254
    1f0c:	21 e0       	ldi	r18, 0x01	; 1
    1f0e:	fc 01       	movw	r30, r24
    1f10:	20 83       	st	Z, r18
    1f12:	ce 01       	movw	r24, r28
    1f14:	8d 53       	subi	r24, 0x3D	; 61
    1f16:	9e 4f       	sbci	r25, 0xFE	; 254
    1f18:	21 e0       	ldi	r18, 0x01	; 1
    1f1a:	dc 01       	movw	r26, r24
    1f1c:	2c 93       	st	X, r18
    1f1e:	ce 01       	movw	r24, r28
    1f20:	8c 53       	subi	r24, 0x3C	; 60
    1f22:	9e 4f       	sbci	r25, 0xFE	; 254
    1f24:	21 e0       	ldi	r18, 0x01	; 1
    1f26:	fc 01       	movw	r30, r24
    1f28:	20 83       	st	Z, r18
    1f2a:	ce 01       	movw	r24, r28
    1f2c:	8e 50       	subi	r24, 0x0E	; 14
    1f2e:	9e 4f       	sbci	r25, 0xFE	; 254
    1f30:	21 e0       	ldi	r18, 0x01	; 1
    1f32:	dc 01       	movw	r26, r24
    1f34:	2c 93       	st	X, r18
    1f36:	ce 01       	movw	r24, r28
    1f38:	86 50       	subi	r24, 0x06	; 6
    1f3a:	9e 4f       	sbci	r25, 0xFE	; 254
    1f3c:	21 e0       	ldi	r18, 0x01	; 1
    1f3e:	fc 01       	movw	r30, r24
    1f40:	20 83       	st	Z, r18
    1f42:	ce 01       	movw	r24, r28
    1f44:	85 50       	subi	r24, 0x05	; 5
    1f46:	9e 4f       	sbci	r25, 0xFE	; 254
    1f48:	21 e0       	ldi	r18, 0x01	; 1
    1f4a:	dc 01       	movw	r26, r24
    1f4c:	2c 93       	st	X, r18
    1f4e:	ce 01       	movw	r24, r28
    1f50:	87 5d       	subi	r24, 0xD7	; 215
    1f52:	9d 4f       	sbci	r25, 0xFD	; 253
    1f54:	21 e0       	ldi	r18, 0x01	; 1
    1f56:	fc 01       	movw	r30, r24
    1f58:	20 83       	st	Z, r18
    1f5a:	ce 01       	movw	r24, r28
    1f5c:	8f 5c       	subi	r24, 0xCF	; 207
    1f5e:	9d 4f       	sbci	r25, 0xFD	; 253
    1f60:	21 e0       	ldi	r18, 0x01	; 1
    1f62:	dc 01       	movw	r26, r24
    1f64:	2c 93       	st	X, r18
    1f66:	ce 01       	movw	r24, r28
    1f68:	8e 5c       	subi	r24, 0xCE	; 206
    1f6a:	9d 4f       	sbci	r25, 0xFD	; 253
    1f6c:	21 e0       	ldi	r18, 0x01	; 1
    1f6e:	fc 01       	movw	r30, r24
    1f70:	20 83       	st	Z, r18
    1f72:	ce 01       	movw	r24, r28
    1f74:	80 5a       	subi	r24, 0xA0	; 160
    1f76:	9d 4f       	sbci	r25, 0xFD	; 253
    1f78:	21 e0       	ldi	r18, 0x01	; 1
    1f7a:	dc 01       	movw	r26, r24
    1f7c:	2c 93       	st	X, r18
    1f7e:	ce 01       	movw	r24, r28
    1f80:	87 59       	subi	r24, 0x97	; 151
    1f82:	9d 4f       	sbci	r25, 0xFD	; 253
    1f84:	21 e0       	ldi	r18, 0x01	; 1
    1f86:	fc 01       	movw	r30, r24
    1f88:	20 83       	st	Z, r18
    1f8a:	ce 01       	movw	r24, r28
    1f8c:	8a 56       	subi	r24, 0x6A	; 106
    1f8e:	9d 4f       	sbci	r25, 0xFD	; 253
    1f90:	21 e0       	ldi	r18, 0x01	; 1
    1f92:	dc 01       	movw	r26, r24
    1f94:	2c 93       	st	X, r18
    1f96:	ce 01       	movw	r24, r28
    1f98:	89 56       	subi	r24, 0x69	; 105
    1f9a:	9d 4f       	sbci	r25, 0xFD	; 253
    1f9c:	21 e0       	ldi	r18, 0x01	; 1
    1f9e:	fc 01       	movw	r30, r24
    1fa0:	20 83       	st	Z, r18
    1fa2:	ce 01       	movw	r24, r28
    1fa4:	80 56       	subi	r24, 0x60	; 96
    1fa6:	9d 4f       	sbci	r25, 0xFD	; 253
    1fa8:	21 e0       	ldi	r18, 0x01	; 1
    1faa:	dc 01       	movw	r26, r24
    1fac:	2c 93       	st	X, r18
    1fae:	ce 01       	movw	r24, r28
    1fb0:	83 53       	subi	r24, 0x33	; 51
    1fb2:	9d 4f       	sbci	r25, 0xFD	; 253
    1fb4:	21 e0       	ldi	r18, 0x01	; 1
    1fb6:	fc 01       	movw	r30, r24
    1fb8:	20 83       	st	Z, r18
    1fba:	ce 01       	movw	r24, r28
    1fbc:	82 53       	subi	r24, 0x32	; 50
    1fbe:	9d 4f       	sbci	r25, 0xFD	; 253
    1fc0:	21 e0       	ldi	r18, 0x01	; 1
    1fc2:	dc 01       	movw	r26, r24
    1fc4:	2c 93       	st	X, r18
    1fc6:	ce 01       	movw	r24, r28
    1fc8:	89 52       	subi	r24, 0x29	; 41
    1fca:	9d 4f       	sbci	r25, 0xFD	; 253
    1fcc:	21 e0       	ldi	r18, 0x01	; 1
    1fce:	fc 01       	movw	r30, r24
    1fd0:	20 83       	st	Z, r18
    1fd2:	ce 01       	movw	r24, r28
    1fd4:	8c 5f       	subi	r24, 0xFC	; 252
    1fd6:	9c 4f       	sbci	r25, 0xFC	; 252
    1fd8:	21 e0       	ldi	r18, 0x01	; 1
    1fda:	dc 01       	movw	r26, r24
    1fdc:	2c 93       	st	X, r18
    1fde:	ce 01       	movw	r24, r28
    1fe0:	8b 5f       	subi	r24, 0xFB	; 251
    1fe2:	9c 4f       	sbci	r25, 0xFC	; 252
    1fe4:	21 e0       	ldi	r18, 0x01	; 1
    1fe6:	fc 01       	movw	r30, r24
    1fe8:	20 83       	st	Z, r18
    1fea:	ce 01       	movw	r24, r28
    1fec:	82 5f       	subi	r24, 0xF2	; 242
    1fee:	9c 4f       	sbci	r25, 0xFC	; 252
    1ff0:	21 e0       	ldi	r18, 0x01	; 1
    1ff2:	dc 01       	movw	r26, r24
    1ff4:	2c 93       	st	X, r18
    1ff6:	ce 01       	movw	r24, r28
    1ff8:	85 5c       	subi	r24, 0xC5	; 197
    1ffa:	9c 4f       	sbci	r25, 0xFC	; 252
    1ffc:	21 e0       	ldi	r18, 0x01	; 1
    1ffe:	fc 01       	movw	r30, r24
    2000:	20 83       	st	Z, r18
    2002:	ce 01       	movw	r24, r28
    2004:	8b 5b       	subi	r24, 0xBB	; 187
    2006:	9c 4f       	sbci	r25, 0xFC	; 252
    2008:	21 e0       	ldi	r18, 0x01	; 1
    200a:	dc 01       	movw	r26, r24
    200c:	2c 93       	st	X, r18
    200e:	ce 01       	movw	r24, r28
    2010:	8e 58       	subi	r24, 0x8E	; 142
    2012:	9c 4f       	sbci	r25, 0xFC	; 252
    2014:	21 e0       	ldi	r18, 0x01	; 1
    2016:	fc 01       	movw	r30, r24
    2018:	20 83       	st	Z, r18
    201a:	ce 01       	movw	r24, r28
    201c:	84 58       	subi	r24, 0x84	; 132
    201e:	9c 4f       	sbci	r25, 0xFC	; 252
    2020:	21 e0       	ldi	r18, 0x01	; 1
    2022:	dc 01       	movw	r26, r24
    2024:	2c 93       	st	X, r18
    2026:	ce 01       	movw	r24, r28
    2028:	83 58       	subi	r24, 0x83	; 131
    202a:	9c 4f       	sbci	r25, 0xFC	; 252
    202c:	21 e0       	ldi	r18, 0x01	; 1
    202e:	fc 01       	movw	r30, r24
    2030:	20 83       	st	Z, r18
    2032:	ce 01       	movw	r24, r28
    2034:	87 55       	subi	r24, 0x57	; 87
    2036:	9c 4f       	sbci	r25, 0xFC	; 252
    2038:	21 e0       	ldi	r18, 0x01	; 1
    203a:	dc 01       	movw	r26, r24
    203c:	2c 93       	st	X, r18
    203e:	ce 01       	movw	r24, r28
    2040:	8d 54       	subi	r24, 0x4D	; 77
    2042:	9c 4f       	sbci	r25, 0xFC	; 252
    2044:	21 e0       	ldi	r18, 0x01	; 1
    2046:	fc 01       	movw	r30, r24
    2048:	20 83       	st	Z, r18
    204a:	ce 01       	movw	r24, r28
    204c:	8c 54       	subi	r24, 0x4C	; 76
    204e:	9c 4f       	sbci	r25, 0xFC	; 252
    2050:	21 e0       	ldi	r18, 0x01	; 1
    2052:	dc 01       	movw	r26, r24
    2054:	2c 93       	st	X, r18
    2056:	ce 01       	movw	r24, r28
    2058:	80 52       	subi	r24, 0x20	; 32
    205a:	9c 4f       	sbci	r25, 0xFC	; 252
    205c:	21 e0       	ldi	r18, 0x01	; 1
    205e:	fc 01       	movw	r30, r24
    2060:	20 83       	st	Z, r18
    2062:	ce 01       	movw	r24, r28
    2064:	86 51       	subi	r24, 0x16	; 22
    2066:	9c 4f       	sbci	r25, 0xFC	; 252
    2068:	21 e0       	ldi	r18, 0x01	; 1
    206a:	dc 01       	movw	r26, r24
    206c:	2c 93       	st	X, r18
    206e:	ce 01       	movw	r24, r28
    2070:	85 51       	subi	r24, 0x15	; 21
    2072:	9c 4f       	sbci	r25, 0xFC	; 252
    2074:	21 e0       	ldi	r18, 0x01	; 1
    2076:	fc 01       	movw	r30, r24
    2078:	20 83       	st	Z, r18
    207a:	ce 01       	movw	r24, r28
    207c:	89 5e       	subi	r24, 0xE9	; 233
    207e:	9b 4f       	sbci	r25, 0xFB	; 251
    2080:	21 e0       	ldi	r18, 0x01	; 1
    2082:	dc 01       	movw	r26, r24
    2084:	2c 93       	st	X, r18
    2086:	ce 01       	movw	r24, r28
    2088:	8f 5d       	subi	r24, 0xDF	; 223
    208a:	9b 4f       	sbci	r25, 0xFB	; 251
    208c:	21 e0       	ldi	r18, 0x01	; 1
    208e:	fc 01       	movw	r30, r24
    2090:	20 83       	st	Z, r18
    2092:	ce 01       	movw	r24, r28
    2094:	8e 5d       	subi	r24, 0xDE	; 222
    2096:	9b 4f       	sbci	r25, 0xFB	; 251
    2098:	21 e0       	ldi	r18, 0x01	; 1
    209a:	dc 01       	movw	r26, r24
    209c:	2c 93       	st	X, r18
    209e:	ce 01       	movw	r24, r28
    20a0:	82 5b       	subi	r24, 0xB2	; 178
    20a2:	9b 4f       	sbci	r25, 0xFB	; 251
    20a4:	21 e0       	ldi	r18, 0x01	; 1
    20a6:	fc 01       	movw	r30, r24
    20a8:	20 83       	st	Z, r18
    20aa:	ce 01       	movw	r24, r28
    20ac:	88 5a       	subi	r24, 0xA8	; 168
    20ae:	9b 4f       	sbci	r25, 0xFB	; 251
    20b0:	21 e0       	ldi	r18, 0x01	; 1
    20b2:	dc 01       	movw	r26, r24
    20b4:	2c 93       	st	X, r18
    20b6:	ce 01       	movw	r24, r28
    20b8:	87 5a       	subi	r24, 0xA7	; 167
    20ba:	9b 4f       	sbci	r25, 0xFB	; 251
    20bc:	21 e0       	ldi	r18, 0x01	; 1
    20be:	fc 01       	movw	r30, r24
    20c0:	20 83       	st	Z, r18
    20c2:	ce 01       	movw	r24, r28
    20c4:	8b 57       	subi	r24, 0x7B	; 123
    20c6:	9b 4f       	sbci	r25, 0xFB	; 251
    20c8:	21 e0       	ldi	r18, 0x01	; 1
    20ca:	dc 01       	movw	r26, r24
    20cc:	2c 93       	st	X, r18
    20ce:	ce 01       	movw	r24, r28
    20d0:	80 57       	subi	r24, 0x70	; 112
    20d2:	9b 4f       	sbci	r25, 0xFB	; 251
    20d4:	21 e0       	ldi	r18, 0x01	; 1
    20d6:	fc 01       	movw	r30, r24
    20d8:	20 83       	st	Z, r18
    20da:	ce 01       	movw	r24, r28
    20dc:	85 54       	subi	r24, 0x45	; 69
    20de:	9b 4f       	sbci	r25, 0xFB	; 251
    20e0:	21 e0       	ldi	r18, 0x01	; 1
    20e2:	dc 01       	movw	r26, r24
    20e4:	2c 93       	st	X, r18
    20e6:	ce 01       	movw	r24, r28
    20e8:	84 54       	subi	r24, 0x44	; 68
    20ea:	9b 4f       	sbci	r25, 0xFB	; 251
    20ec:	21 e0       	ldi	r18, 0x01	; 1
    20ee:	fc 01       	movw	r30, r24
    20f0:	20 83       	st	Z, r18
    20f2:	ce 01       	movw	r24, r28
    20f4:	89 53       	subi	r24, 0x39	; 57
    20f6:	9b 4f       	sbci	r25, 0xFB	; 251
    20f8:	21 e0       	ldi	r18, 0x01	; 1
    20fa:	dc 01       	movw	r26, r24
    20fc:	2c 93       	st	X, r18
    20fe:	ce 01       	movw	r24, r28
    2100:	8e 50       	subi	r24, 0x0E	; 14
    2102:	9b 4f       	sbci	r25, 0xFB	; 251
    2104:	21 e0       	ldi	r18, 0x01	; 1
    2106:	fc 01       	movw	r30, r24
    2108:	20 83       	st	Z, r18
    210a:	ce 01       	movw	r24, r28
    210c:	8d 50       	subi	r24, 0x0D	; 13
    210e:	9b 4f       	sbci	r25, 0xFB	; 251
    2110:	21 e0       	ldi	r18, 0x01	; 1
    2112:	dc 01       	movw	r26, r24
    2114:	2c 93       	st	X, r18
    2116:	ce 01       	movw	r24, r28
    2118:	82 50       	subi	r24, 0x02	; 2
    211a:	9b 4f       	sbci	r25, 0xFB	; 251
    211c:	21 e0       	ldi	r18, 0x01	; 1
    211e:	fc 01       	movw	r30, r24
    2120:	20 83       	st	Z, r18
    2122:	ce 01       	movw	r24, r28
    2124:	87 5d       	subi	r24, 0xD7	; 215
    2126:	9a 4f       	sbci	r25, 0xFA	; 250
    2128:	21 e0       	ldi	r18, 0x01	; 1
    212a:	dc 01       	movw	r26, r24
    212c:	2c 93       	st	X, r18
    212e:	ce 01       	movw	r24, r28
    2130:	86 5d       	subi	r24, 0xD6	; 214
    2132:	9a 4f       	sbci	r25, 0xFA	; 250
    2134:	21 e0       	ldi	r18, 0x01	; 1
    2136:	fc 01       	movw	r30, r24
    2138:	20 83       	st	Z, r18
    213a:	ce 01       	movw	r24, r28
    213c:	8b 5c       	subi	r24, 0xCB	; 203
    213e:	9a 4f       	sbci	r25, 0xFA	; 250
    2140:	21 e0       	ldi	r18, 0x01	; 1
    2142:	dc 01       	movw	r26, r24
    2144:	2c 93       	st	X, r18
    2146:	ce 01       	movw	r24, r28
    2148:	80 5a       	subi	r24, 0xA0	; 160
    214a:	9a 4f       	sbci	r25, 0xFA	; 250
    214c:	21 e0       	ldi	r18, 0x01	; 1
    214e:	fc 01       	movw	r30, r24
    2150:	20 83       	st	Z, r18
    2152:	ce 01       	movw	r24, r28
    2154:	8f 59       	subi	r24, 0x9F	; 159
    2156:	9a 4f       	sbci	r25, 0xFA	; 250
    2158:	21 e0       	ldi	r18, 0x01	; 1
    215a:	dc 01       	movw	r26, r24
    215c:	2c 93       	st	X, r18
    215e:	ce 01       	movw	r24, r28
    2160:	84 59       	subi	r24, 0x94	; 148
    2162:	9a 4f       	sbci	r25, 0xFA	; 250
    2164:	21 e0       	ldi	r18, 0x01	; 1
    2166:	fc 01       	movw	r30, r24
    2168:	20 83       	st	Z, r18
    216a:	ce 01       	movw	r24, r28
    216c:	89 56       	subi	r24, 0x69	; 105
    216e:	9a 4f       	sbci	r25, 0xFA	; 250
    2170:	21 e0       	ldi	r18, 0x01	; 1
    2172:	dc 01       	movw	r26, r24
    2174:	2c 93       	st	X, r18
    2176:	ce 01       	movw	r24, r28
    2178:	8d 55       	subi	r24, 0x5D	; 93
    217a:	9a 4f       	sbci	r25, 0xFA	; 250
    217c:	21 e0       	ldi	r18, 0x01	; 1
    217e:	fc 01       	movw	r30, r24
    2180:	20 83       	st	Z, r18
    2182:	ce 01       	movw	r24, r28
    2184:	82 53       	subi	r24, 0x32	; 50
    2186:	9a 4f       	sbci	r25, 0xFA	; 250
    2188:	21 e0       	ldi	r18, 0x01	; 1
    218a:	dc 01       	movw	r26, r24
    218c:	2c 93       	st	X, r18
    218e:	ce 01       	movw	r24, r28
    2190:	86 52       	subi	r24, 0x26	; 38
    2192:	9a 4f       	sbci	r25, 0xFA	; 250
    2194:	21 e0       	ldi	r18, 0x01	; 1
    2196:	fc 01       	movw	r30, r24
    2198:	20 83       	st	Z, r18
    219a:	ce 01       	movw	r24, r28
    219c:	8b 5f       	subi	r24, 0xFB	; 251
    219e:	99 4f       	sbci	r25, 0xF9	; 249
    21a0:	21 e0       	ldi	r18, 0x01	; 1
    21a2:	dc 01       	movw	r26, r24
    21a4:	2c 93       	st	X, r18
    21a6:	ce 01       	movw	r24, r28
    21a8:	80 5f       	subi	r24, 0xF0	; 240
    21aa:	99 4f       	sbci	r25, 0xF9	; 249
    21ac:	21 e0       	ldi	r18, 0x01	; 1
    21ae:	fc 01       	movw	r30, r24
    21b0:	20 83       	st	Z, r18
    21b2:	ce 01       	movw	r24, r28
    21b4:	8f 5e       	subi	r24, 0xEF	; 239
    21b6:	99 4f       	sbci	r25, 0xF9	; 249
    21b8:	21 e0       	ldi	r18, 0x01	; 1
    21ba:	dc 01       	movw	r26, r24
    21bc:	2c 93       	st	X, r18
    21be:	ce 01       	movw	r24, r28
    21c0:	84 5c       	subi	r24, 0xC4	; 196
    21c2:	99 4f       	sbci	r25, 0xF9	; 249
    21c4:	21 e0       	ldi	r18, 0x01	; 1
    21c6:	fc 01       	movw	r30, r24
    21c8:	20 83       	st	Z, r18
    21ca:	ce 01       	movw	r24, r28
    21cc:	89 5b       	subi	r24, 0xB9	; 185
    21ce:	99 4f       	sbci	r25, 0xF9	; 249
    21d0:	21 e0       	ldi	r18, 0x01	; 1
    21d2:	dc 01       	movw	r26, r24
    21d4:	2c 93       	st	X, r18
    21d6:	ce 01       	movw	r24, r28
    21d8:	88 5b       	subi	r24, 0xB8	; 184
    21da:	99 4f       	sbci	r25, 0xF9	; 249
    21dc:	21 e0       	ldi	r18, 0x01	; 1
    21de:	fc 01       	movw	r30, r24
    21e0:	20 83       	st	Z, r18
    21e2:	ce 01       	movw	r24, r28
    21e4:	8d 58       	subi	r24, 0x8D	; 141
    21e6:	99 4f       	sbci	r25, 0xF9	; 249
    21e8:	21 e0       	ldi	r18, 0x01	; 1
    21ea:	dc 01       	movw	r26, r24
    21ec:	2c 93       	st	X, r18
    21ee:	ce 01       	movw	r24, r28
    21f0:	82 58       	subi	r24, 0x82	; 130
    21f2:	99 4f       	sbci	r25, 0xF9	; 249
    21f4:	21 e0       	ldi	r18, 0x01	; 1
    21f6:	fc 01       	movw	r30, r24
    21f8:	20 83       	st	Z, r18
    21fa:	ce 01       	movw	r24, r28
    21fc:	81 58       	subi	r24, 0x81	; 129
    21fe:	99 4f       	sbci	r25, 0xF9	; 249
    2200:	21 e0       	ldi	r18, 0x01	; 1
    2202:	dc 01       	movw	r26, r24
    2204:	2c 93       	st	X, r18
    2206:	ce 01       	movw	r24, r28
    2208:	86 55       	subi	r24, 0x56	; 86
    220a:	99 4f       	sbci	r25, 0xF9	; 249
    220c:	21 e0       	ldi	r18, 0x01	; 1
    220e:	fc 01       	movw	r30, r24
    2210:	20 83       	st	Z, r18
    2212:	ce 01       	movw	r24, r28
    2214:	8b 54       	subi	r24, 0x4B	; 75
    2216:	99 4f       	sbci	r25, 0xF9	; 249
    2218:	21 e0       	ldi	r18, 0x01	; 1
    221a:	dc 01       	movw	r26, r24
    221c:	2c 93       	st	X, r18
    221e:	ce 01       	movw	r24, r28
    2220:	8a 54       	subi	r24, 0x4A	; 74
    2222:	99 4f       	sbci	r25, 0xF9	; 249
    2224:	21 e0       	ldi	r18, 0x01	; 1
    2226:	fc 01       	movw	r30, r24
    2228:	20 83       	st	Z, r18
    222a:	ce 01       	movw	r24, r28
    222c:	8f 51       	subi	r24, 0x1F	; 31
    222e:	99 4f       	sbci	r25, 0xF9	; 249
    2230:	21 e0       	ldi	r18, 0x01	; 1
    2232:	dc 01       	movw	r26, r24
    2234:	2c 93       	st	X, r18
    2236:	ce 01       	movw	r24, r28
    2238:	84 51       	subi	r24, 0x14	; 20
    223a:	99 4f       	sbci	r25, 0xF9	; 249
    223c:	21 e0       	ldi	r18, 0x01	; 1
    223e:	fc 01       	movw	r30, r24
    2240:	20 83       	st	Z, r18
    2242:	ce 01       	movw	r24, r28
    2244:	88 5e       	subi	r24, 0xE8	; 232
    2246:	98 4f       	sbci	r25, 0xF8	; 248
    2248:	21 e0       	ldi	r18, 0x01	; 1
    224a:	dc 01       	movw	r26, r24
    224c:	2c 93       	st	X, r18
    224e:	ce 01       	movw	r24, r28
    2250:	87 5e       	subi	r24, 0xE7	; 231
    2252:	98 4f       	sbci	r25, 0xF8	; 248
    2254:	21 e0       	ldi	r18, 0x01	; 1
    2256:	fc 01       	movw	r30, r24
    2258:	20 83       	st	Z, r18
    225a:	ce 01       	movw	r24, r28
    225c:	8d 5d       	subi	r24, 0xDD	; 221
    225e:	98 4f       	sbci	r25, 0xF8	; 248
    2260:	21 e0       	ldi	r18, 0x01	; 1
    2262:	dc 01       	movw	r26, r24
    2264:	2c 93       	st	X, r18
    2266:	ce 01       	movw	r24, r28
    2268:	81 5b       	subi	r24, 0xB1	; 177
    226a:	98 4f       	sbci	r25, 0xF8	; 248
    226c:	21 e0       	ldi	r18, 0x01	; 1
    226e:	fc 01       	movw	r30, r24
    2270:	20 83       	st	Z, r18
    2272:	ce 01       	movw	r24, r28
    2274:	80 5b       	subi	r24, 0xB0	; 176
    2276:	98 4f       	sbci	r25, 0xF8	; 248
    2278:	21 e0       	ldi	r18, 0x01	; 1
    227a:	dc 01       	movw	r26, r24
    227c:	2c 93       	st	X, r18
    227e:	ce 01       	movw	r24, r28
    2280:	86 5a       	subi	r24, 0xA6	; 166
    2282:	98 4f       	sbci	r25, 0xF8	; 248
    2284:	21 e0       	ldi	r18, 0x01	; 1
    2286:	fc 01       	movw	r30, r24
    2288:	20 83       	st	Z, r18
    228a:	ce 01       	movw	r24, r28
    228c:	8a 57       	subi	r24, 0x7A	; 122
    228e:	98 4f       	sbci	r25, 0xF8	; 248
    2290:	21 e0       	ldi	r18, 0x01	; 1
    2292:	dc 01       	movw	r26, r24
    2294:	2c 93       	st	X, r18
    2296:	ce 01       	movw	r24, r28
    2298:	89 57       	subi	r24, 0x79	; 121
    229a:	98 4f       	sbci	r25, 0xF8	; 248
    229c:	21 e0       	ldi	r18, 0x01	; 1
    229e:	fc 01       	movw	r30, r24
    22a0:	20 83       	st	Z, r18
    22a2:	ce 01       	movw	r24, r28
    22a4:	8f 56       	subi	r24, 0x6F	; 111
    22a6:	98 4f       	sbci	r25, 0xF8	; 248
    22a8:	21 e0       	ldi	r18, 0x01	; 1
    22aa:	dc 01       	movw	r26, r24
    22ac:	2c 93       	st	X, r18
    22ae:	ce 01       	movw	r24, r28
    22b0:	83 54       	subi	r24, 0x43	; 67
    22b2:	98 4f       	sbci	r25, 0xF8	; 248
    22b4:	21 e0       	ldi	r18, 0x01	; 1
    22b6:	fc 01       	movw	r30, r24
    22b8:	20 83       	st	Z, r18
    22ba:	ce 01       	movw	r24, r28
    22bc:	82 54       	subi	r24, 0x42	; 66
    22be:	98 4f       	sbci	r25, 0xF8	; 248
    22c0:	21 e0       	ldi	r18, 0x01	; 1
    22c2:	dc 01       	movw	r26, r24
    22c4:	2c 93       	st	X, r18
    22c6:	ce 01       	movw	r24, r28
    22c8:	88 53       	subi	r24, 0x38	; 56
    22ca:	98 4f       	sbci	r25, 0xF8	; 248
    22cc:	21 e0       	ldi	r18, 0x01	; 1
    22ce:	fc 01       	movw	r30, r24
    22d0:	20 83       	st	Z, r18
    22d2:	ce 01       	movw	r24, r28
    22d4:	8c 50       	subi	r24, 0x0C	; 12
    22d6:	98 4f       	sbci	r25, 0xF8	; 248
    22d8:	21 e0       	ldi	r18, 0x01	; 1
    22da:	dc 01       	movw	r26, r24
    22dc:	2c 93       	st	X, r18
    22de:	ce 01       	movw	r24, r28
    22e0:	8b 50       	subi	r24, 0x0B	; 11
    22e2:	98 4f       	sbci	r25, 0xF8	; 248
    22e4:	21 e0       	ldi	r18, 0x01	; 1
    22e6:	fc 01       	movw	r30, r24
    22e8:	20 83       	st	Z, r18
    22ea:	ce 01       	movw	r24, r28
    22ec:	81 50       	subi	r24, 0x01	; 1
    22ee:	98 4f       	sbci	r25, 0xF8	; 248
    22f0:	21 e0       	ldi	r18, 0x01	; 1
    22f2:	dc 01       	movw	r26, r24
    22f4:	2c 93       	st	X, r18
    22f6:	ce 01       	movw	r24, r28
    22f8:	84 5d       	subi	r24, 0xD4	; 212
    22fa:	97 4f       	sbci	r25, 0xF7	; 247
    22fc:	21 e0       	ldi	r18, 0x01	; 1
    22fe:	fc 01       	movw	r30, r24
    2300:	20 83       	st	Z, r18
    2302:	ce 01       	movw	r24, r28
    2304:	8a 5c       	subi	r24, 0xCA	; 202
    2306:	97 4f       	sbci	r25, 0xF7	; 247
    2308:	21 e0       	ldi	r18, 0x01	; 1
    230a:	dc 01       	movw	r26, r24
    230c:	2c 93       	st	X, r18
    230e:	ce 01       	movw	r24, r28
    2310:	8d 59       	subi	r24, 0x9D	; 157
    2312:	97 4f       	sbci	r25, 0xF7	; 247
    2314:	21 e0       	ldi	r18, 0x01	; 1
    2316:	fc 01       	movw	r30, r24
    2318:	20 83       	st	Z, r18
    231a:	ce 01       	movw	r24, r28
    231c:	84 59       	subi	r24, 0x94	; 148
    231e:	97 4f       	sbci	r25, 0xF7	; 247
    2320:	21 e0       	ldi	r18, 0x01	; 1
    2322:	dc 01       	movw	r26, r24
    2324:	2c 93       	st	X, r18
    2326:	ce 01       	movw	r24, r28
    2328:	83 59       	subi	r24, 0x93	; 147
    232a:	97 4f       	sbci	r25, 0xF7	; 247
    232c:	21 e0       	ldi	r18, 0x01	; 1
    232e:	fc 01       	movw	r30, r24
    2330:	20 83       	st	Z, r18
    2332:	ce 01       	movw	r24, r28
    2334:	86 56       	subi	r24, 0x66	; 102
    2336:	97 4f       	sbci	r25, 0xF7	; 247
    2338:	21 e0       	ldi	r18, 0x01	; 1
    233a:	dc 01       	movw	r26, r24
    233c:	2c 93       	st	X, r18
    233e:	ce 01       	movw	r24, r28
    2340:	8d 55       	subi	r24, 0x5D	; 93
    2342:	97 4f       	sbci	r25, 0xF7	; 247
    2344:	21 e0       	ldi	r18, 0x01	; 1
    2346:	fc 01       	movw	r30, r24
    2348:	20 83       	st	Z, r18
    234a:	ce 01       	movw	r24, r28
    234c:	8c 55       	subi	r24, 0x5C	; 92
    234e:	97 4f       	sbci	r25, 0xF7	; 247
    2350:	21 e0       	ldi	r18, 0x01	; 1
    2352:	dc 01       	movw	r26, r24
    2354:	2c 93       	st	X, r18
    2356:	ce 01       	movw	r24, r28
    2358:	8f 52       	subi	r24, 0x2F	; 47
    235a:	97 4f       	sbci	r25, 0xF7	; 247
    235c:	21 e0       	ldi	r18, 0x01	; 1
    235e:	fc 01       	movw	r30, r24
    2360:	20 83       	st	Z, r18
    2362:	ce 01       	movw	r24, r28
    2364:	86 52       	subi	r24, 0x26	; 38
    2366:	97 4f       	sbci	r25, 0xF7	; 247
    2368:	21 e0       	ldi	r18, 0x01	; 1
    236a:	dc 01       	movw	r26, r24
    236c:	2c 93       	st	X, r18
    236e:	ce 01       	movw	r24, r28
    2370:	85 52       	subi	r24, 0x25	; 37
    2372:	97 4f       	sbci	r25, 0xF7	; 247
    2374:	21 e0       	ldi	r18, 0x01	; 1
    2376:	fc 01       	movw	r30, r24
    2378:	20 83       	st	Z, r18
    237a:	ce 01       	movw	r24, r28
    237c:	88 5f       	subi	r24, 0xF8	; 248
    237e:	96 4f       	sbci	r25, 0xF6	; 246
    2380:	21 e0       	ldi	r18, 0x01	; 1
    2382:	dc 01       	movw	r26, r24
    2384:	2c 93       	st	X, r18
    2386:	ce 01       	movw	r24, r28
    2388:	8f 5e       	subi	r24, 0xEF	; 239
    238a:	96 4f       	sbci	r25, 0xF6	; 246
    238c:	21 e0       	ldi	r18, 0x01	; 1
    238e:	fc 01       	movw	r30, r24
    2390:	20 83       	st	Z, r18
    2392:	ce 01       	movw	r24, r28
    2394:	81 5c       	subi	r24, 0xC1	; 193
    2396:	96 4f       	sbci	r25, 0xF6	; 246
    2398:	21 e0       	ldi	r18, 0x01	; 1
    239a:	dc 01       	movw	r26, r24
    239c:	2c 93       	st	X, r18
    239e:	ce 01       	movw	r24, r28
    23a0:	80 5c       	subi	r24, 0xC0	; 192
    23a2:	96 4f       	sbci	r25, 0xF6	; 246
    23a4:	21 e0       	ldi	r18, 0x01	; 1
    23a6:	fc 01       	movw	r30, r24
    23a8:	20 83       	st	Z, r18
    23aa:	ce 01       	movw	r24, r28
    23ac:	88 5b       	subi	r24, 0xB8	; 184
    23ae:	96 4f       	sbci	r25, 0xF6	; 246
    23b0:	21 e0       	ldi	r18, 0x01	; 1
    23b2:	dc 01       	movw	r26, r24
    23b4:	2c 93       	st	X, r18
    23b6:	ce 01       	movw	r24, r28
    23b8:	8a 58       	subi	r24, 0x8A	; 138
    23ba:	96 4f       	sbci	r25, 0xF6	; 246
    23bc:	21 e0       	ldi	r18, 0x01	; 1
    23be:	fc 01       	movw	r30, r24
    23c0:	20 83       	st	Z, r18
    23c2:	ce 01       	movw	r24, r28
    23c4:	89 58       	subi	r24, 0x89	; 137
    23c6:	96 4f       	sbci	r25, 0xF6	; 246
    23c8:	21 e0       	ldi	r18, 0x01	; 1
    23ca:	dc 01       	movw	r26, r24
    23cc:	2c 93       	st	X, r18
    23ce:	ce 01       	movw	r24, r28
    23d0:	81 58       	subi	r24, 0x81	; 129
    23d2:	96 4f       	sbci	r25, 0xF6	; 246
    23d4:	21 e0       	ldi	r18, 0x01	; 1
    23d6:	fc 01       	movw	r30, r24
    23d8:	20 83       	st	Z, r18
    23da:	ce 01       	movw	r24, r28
    23dc:	83 55       	subi	r24, 0x53	; 83
    23de:	96 4f       	sbci	r25, 0xF6	; 246
    23e0:	21 e0       	ldi	r18, 0x01	; 1
    23e2:	dc 01       	movw	r26, r24
    23e4:	2c 93       	st	X, r18
    23e6:	ce 01       	movw	r24, r28
    23e8:	82 55       	subi	r24, 0x52	; 82
    23ea:	96 4f       	sbci	r25, 0xF6	; 246
    23ec:	21 e0       	ldi	r18, 0x01	; 1
    23ee:	fc 01       	movw	r30, r24
    23f0:	20 83       	st	Z, r18
    23f2:	ce 01       	movw	r24, r28
    23f4:	8a 54       	subi	r24, 0x4A	; 74
    23f6:	96 4f       	sbci	r25, 0xF6	; 246
    23f8:	21 e0       	ldi	r18, 0x01	; 1
    23fa:	dc 01       	movw	r26, r24
    23fc:	2c 93       	st	X, r18
    23fe:	ce 01       	movw	r24, r28
    2400:	8c 51       	subi	r24, 0x1C	; 28
    2402:	96 4f       	sbci	r25, 0xF6	; 246
    2404:	21 e0       	ldi	r18, 0x01	; 1
    2406:	fc 01       	movw	r30, r24
    2408:	20 83       	st	Z, r18
    240a:	ce 01       	movw	r24, r28
    240c:	8b 51       	subi	r24, 0x1B	; 27
    240e:	96 4f       	sbci	r25, 0xF6	; 246
    2410:	21 e0       	ldi	r18, 0x01	; 1
    2412:	dc 01       	movw	r26, r24
    2414:	2c 93       	st	X, r18
    2416:	ce 01       	movw	r24, r28
    2418:	83 51       	subi	r24, 0x13	; 19
    241a:	96 4f       	sbci	r25, 0xF6	; 246
    241c:	21 e0       	ldi	r18, 0x01	; 1
    241e:	fc 01       	movw	r30, r24
    2420:	20 83       	st	Z, r18
    2422:	ce 01       	movw	r24, r28
    2424:	84 5e       	subi	r24, 0xE4	; 228
    2426:	95 4f       	sbci	r25, 0xF5	; 245
    2428:	21 e0       	ldi	r18, 0x01	; 1
    242a:	dc 01       	movw	r26, r24
    242c:	2c 93       	st	X, r18
    242e:	ce 01       	movw	r24, r28
    2430:	8c 5d       	subi	r24, 0xDC	; 220
    2432:	95 4f       	sbci	r25, 0xF5	; 245
    2434:	21 e0       	ldi	r18, 0x01	; 1
    2436:	fc 01       	movw	r30, r24
    2438:	20 83       	st	Z, r18
    243a:	ce 01       	movw	r24, r28
    243c:	8d 5a       	subi	r24, 0xAD	; 173
    243e:	95 4f       	sbci	r25, 0xF5	; 245
    2440:	21 e0       	ldi	r18, 0x01	; 1
    2442:	dc 01       	movw	r26, r24
    2444:	2c 93       	st	X, r18
    2446:	ce 01       	movw	r24, r28
    2448:	86 5a       	subi	r24, 0xA6	; 166
    244a:	95 4f       	sbci	r25, 0xF5	; 245
    244c:	21 e0       	ldi	r18, 0x01	; 1
    244e:	fc 01       	movw	r30, r24
    2450:	20 83       	st	Z, r18
    2452:	ce 01       	movw	r24, r28
    2454:	85 5a       	subi	r24, 0xA5	; 165
    2456:	95 4f       	sbci	r25, 0xF5	; 245
    2458:	21 e0       	ldi	r18, 0x01	; 1
    245a:	dc 01       	movw	r26, r24
    245c:	2c 93       	st	X, r18
    245e:	ce 01       	movw	r24, r28
    2460:	86 57       	subi	r24, 0x76	; 118
    2462:	95 4f       	sbci	r25, 0xF5	; 245
    2464:	21 e0       	ldi	r18, 0x01	; 1
    2466:	fc 01       	movw	r30, r24
    2468:	20 83       	st	Z, r18
    246a:	ce 01       	movw	r24, r28
    246c:	8f 56       	subi	r24, 0x6F	; 111
    246e:	95 4f       	sbci	r25, 0xF5	; 245
    2470:	21 e0       	ldi	r18, 0x01	; 1
    2472:	dc 01       	movw	r26, r24
    2474:	2c 93       	st	X, r18
    2476:	ce 01       	movw	r24, r28
    2478:	8e 56       	subi	r24, 0x6E	; 110
    247a:	95 4f       	sbci	r25, 0xF5	; 245
    247c:	21 e0       	ldi	r18, 0x01	; 1
    247e:	fc 01       	movw	r30, r24
    2480:	20 83       	st	Z, r18
    2482:	ce 01       	movw	r24, r28
    2484:	8f 53       	subi	r24, 0x3F	; 63
    2486:	95 4f       	sbci	r25, 0xF5	; 245
    2488:	21 e0       	ldi	r18, 0x01	; 1
    248a:	dc 01       	movw	r26, r24
    248c:	2c 93       	st	X, r18
    248e:	ce 01       	movw	r24, r28
    2490:	8b 53       	subi	r24, 0x3B	; 59
    2492:	95 4f       	sbci	r25, 0xF5	; 245
    2494:	21 e0       	ldi	r18, 0x01	; 1
    2496:	fc 01       	movw	r30, r24
    2498:	20 83       	st	Z, r18
    249a:	ce 01       	movw	r24, r28
    249c:	88 50       	subi	r24, 0x08	; 8
    249e:	95 4f       	sbci	r25, 0xF5	; 245
    24a0:	21 e0       	ldi	r18, 0x01	; 1
    24a2:	dc 01       	movw	r26, r24
    24a4:	2c 93       	st	X, r18
    24a6:	ce 01       	movw	r24, r28
    24a8:	87 50       	subi	r24, 0x07	; 7
    24aa:	95 4f       	sbci	r25, 0xF5	; 245
    24ac:	21 e0       	ldi	r18, 0x01	; 1
    24ae:	fc 01       	movw	r30, r24
    24b0:	20 83       	st	Z, r18
    24b2:	ce 01       	movw	r24, r28
    24b4:	81 5d       	subi	r24, 0xD1	; 209
    24b6:	94 4f       	sbci	r25, 0xF4	; 244
    24b8:	21 e0       	ldi	r18, 0x01	; 1
    24ba:	dc 01       	movw	r26, r24
    24bc:	2c 93       	st	X, r18
    24be:	ce 01       	movw	r24, r28
    24c0:	80 5d       	subi	r24, 0xD0	; 208
    24c2:	94 4f       	sbci	r25, 0xF4	; 244
    24c4:	21 e0       	ldi	r18, 0x01	; 1
    24c6:	fc 01       	movw	r30, r24
    24c8:	20 83       	st	Z, r18
    24ca:	ce 01       	movw	r24, r28
    24cc:	8a 59       	subi	r24, 0x9A	; 154
    24ce:	94 4f       	sbci	r25, 0xF4	; 244
    24d0:	21 e0       	ldi	r18, 0x01	; 1
    24d2:	dc 01       	movw	r26, r24
    24d4:	2c 93       	st	X, r18
    24d6:	ce 01       	movw	r24, r28
    24d8:	89 59       	subi	r24, 0x99	; 153
    24da:	94 4f       	sbci	r25, 0xF4	; 244
    24dc:	21 e0       	ldi	r18, 0x01	; 1
    24de:	fc 01       	movw	r30, r24
    24e0:	20 83       	st	Z, r18
		0,0,0,0,0,0,0,0,0,0,0,0,0,0,0,0,0,0,0,0,0,0,0,0,0,0,0,0,0,0,0,0,0,0,0,0,0,0,0,0,0,0,0,0,0,1,0,0,0,0,0,0,1,1,
		0,0,0,0,0,0,0,0,0,0,0,0,0,0,0,0,0,0,0,0,0,0,0,0,0,0,0,0,0,0,0,0,0,0,0,0,0,0,0,0,0,0,0,0,0,0,1,0,0,0,1,0,0,0,
		0,0,0,0,0,0,0,0,0,0,0,0,0,0,0,0,0,0,0,0,0,0,0,0,0,0,0,0,0,0,0,0,0,0,0,0,0,0,0,0,0,0,0,0,0,0,0,1,1,0,0,0,0,0,
		0,0,0,0,0,0,0,0,0,0,0,0,0,0,0,0,0,0,0,0,0,0,0,0,0,0,0,0,0,0,0,0,0,0,0,0,0,0,0,0,0,0,0,0,0,0,0,0,1,1,0,0,0,0,
		0,0,0,0,0,0,0,0,0,0,0,0,0,0,0,0,0,0,0,0,0,0,0,0,0,0,0,0,0,0,0,0,0,0,0,0,0,0,0,0,0,0,0,0,0,0,0,0,0,1,1,0,0,0};
	unsigned char cost[vertices][vertices], visited[vertices], i, j, k, min, next, infinity=99;
    24e2:	83 e6       	ldi	r24, 0x63	; 99
    24e4:	8e 83       	std	Y+6, r24	; 0x06
	for(i=0; i<vertices; i++)
    24e6:	19 82       	std	Y+1, r1	; 0x01
    24e8:	66 c0       	rjmp	.+204    	; 0x25b6 <__stack+0x3b7>
	{
		for(j=0; j<vertices; j++)
    24ea:	1a 82       	std	Y+2, r1	; 0x02
    24ec:	5d c0       	rjmp	.+186    	; 0x25a8 <__stack+0x3a9>
		{
			if(adj_mat[i][j] == 0)
    24ee:	89 81       	ldd	r24, Y+1	; 0x01
    24f0:	48 2f       	mov	r20, r24
    24f2:	50 e0       	ldi	r21, 0x00	; 0
    24f4:	8a 81       	ldd	r24, Y+2	; 0x02
    24f6:	88 2f       	mov	r24, r24
    24f8:	90 e0       	ldi	r25, 0x00	; 0
    24fa:	66 e3       	ldi	r22, 0x36	; 54
    24fc:	64 9f       	mul	r22, r20
    24fe:	90 01       	movw	r18, r0
    2500:	65 9f       	mul	r22, r21
    2502:	30 0d       	add	r19, r0
    2504:	11 24       	eor	r1, r1
    2506:	ae 01       	movw	r20, r28
    2508:	4f 5f       	subi	r20, 0xFF	; 255
    250a:	5f 4f       	sbci	r21, 0xFF	; 255
    250c:	24 0f       	add	r18, r20
    250e:	35 1f       	adc	r19, r21
    2510:	82 0f       	add	r24, r18
    2512:	93 1f       	adc	r25, r19
    2514:	06 96       	adiw	r24, 0x06	; 6
    2516:	dc 01       	movw	r26, r24
    2518:	8c 91       	ld	r24, X
    251a:	88 23       	and	r24, r24
    251c:	b9 f4       	brne	.+46     	; 0x254c <__stack+0x34d>
				cost[i][j] = infinity;
    251e:	89 81       	ldd	r24, Y+1	; 0x01
    2520:	68 2f       	mov	r22, r24
    2522:	70 e0       	ldi	r23, 0x00	; 0
    2524:	8a 81       	ldd	r24, Y+2	; 0x02
    2526:	88 2f       	mov	r24, r24
    2528:	90 e0       	ldi	r25, 0x00	; 0
    252a:	ae 01       	movw	r20, r28
    252c:	45 59       	subi	r20, 0x95	; 149
    252e:	54 4f       	sbci	r21, 0xF4	; 244
    2530:	e6 e3       	ldi	r30, 0x36	; 54
    2532:	e6 9f       	mul	r30, r22
    2534:	90 01       	movw	r18, r0
    2536:	e7 9f       	mul	r30, r23
    2538:	30 0d       	add	r19, r0
    253a:	11 24       	eor	r1, r1
    253c:	24 0f       	add	r18, r20
    253e:	35 1f       	adc	r19, r21
    2540:	82 0f       	add	r24, r18
    2542:	93 1f       	adc	r25, r19
    2544:	2e 81       	ldd	r18, Y+6	; 0x06
    2546:	fc 01       	movw	r30, r24
    2548:	20 83       	st	Z, r18
    254a:	2b c0       	rjmp	.+86     	; 0x25a2 <__stack+0x3a3>
			else
				cost[i][j] = adj_mat[i][j];
    254c:	89 81       	ldd	r24, Y+1	; 0x01
    254e:	68 2f       	mov	r22, r24
    2550:	70 e0       	ldi	r23, 0x00	; 0
    2552:	8a 81       	ldd	r24, Y+2	; 0x02
    2554:	88 2f       	mov	r24, r24
    2556:	90 e0       	ldi	r25, 0x00	; 0
    2558:	29 81       	ldd	r18, Y+1	; 0x01
    255a:	e2 2f       	mov	r30, r18
    255c:	f0 e0       	ldi	r31, 0x00	; 0
    255e:	2a 81       	ldd	r18, Y+2	; 0x02
    2560:	22 2f       	mov	r18, r18
    2562:	30 e0       	ldi	r19, 0x00	; 0
    2564:	a6 e3       	ldi	r26, 0x36	; 54
    2566:	ae 9f       	mul	r26, r30
    2568:	a0 01       	movw	r20, r0
    256a:	af 9f       	mul	r26, r31
    256c:	50 0d       	add	r21, r0
    256e:	11 24       	eor	r1, r1
    2570:	fe 01       	movw	r30, r28
    2572:	31 96       	adiw	r30, 0x01	; 1
    2574:	4e 0f       	add	r20, r30
    2576:	5f 1f       	adc	r21, r31
    2578:	24 0f       	add	r18, r20
    257a:	35 1f       	adc	r19, r21
    257c:	2a 5f       	subi	r18, 0xFA	; 250
    257e:	3f 4f       	sbci	r19, 0xFF	; 255
    2580:	d9 01       	movw	r26, r18
    2582:	ec 91       	ld	r30, X
    2584:	ae 01       	movw	r20, r28
    2586:	45 59       	subi	r20, 0x95	; 149
    2588:	54 4f       	sbci	r21, 0xF4	; 244
    258a:	f6 e3       	ldi	r31, 0x36	; 54
    258c:	f6 9f       	mul	r31, r22
    258e:	90 01       	movw	r18, r0
    2590:	f7 9f       	mul	r31, r23
    2592:	30 0d       	add	r19, r0
    2594:	11 24       	eor	r1, r1
    2596:	24 0f       	add	r18, r20
    2598:	35 1f       	adc	r19, r21
    259a:	82 0f       	add	r24, r18
    259c:	93 1f       	adc	r25, r19
    259e:	dc 01       	movw	r26, r24
    25a0:	ec 93       	st	X, r30
		0,0,0,0,0,0,0,0,0,0,0,0,0,0,0,0,0,0,0,0,0,0,0,0,0,0,0,0,0,0,0,0,0,0,0,0,0,0,0,0,0,0,0,0,0,0,0,0,1,1,0,0,0,0,
		0,0,0,0,0,0,0,0,0,0,0,0,0,0,0,0,0,0,0,0,0,0,0,0,0,0,0,0,0,0,0,0,0,0,0,0,0,0,0,0,0,0,0,0,0,0,0,0,0,1,1,0,0,0};
	unsigned char cost[vertices][vertices], visited[vertices], i, j, k, min, next, infinity=99;
	for(i=0; i<vertices; i++)
	{
		for(j=0; j<vertices; j++)
    25a2:	8a 81       	ldd	r24, Y+2	; 0x02
    25a4:	8f 5f       	subi	r24, 0xFF	; 255
    25a6:	8a 83       	std	Y+2, r24	; 0x02
    25a8:	8a 81       	ldd	r24, Y+2	; 0x02
    25aa:	86 33       	cpi	r24, 0x36	; 54
    25ac:	08 f4       	brcc	.+2      	; 0x25b0 <__stack+0x3b1>
    25ae:	9f cf       	rjmp	.-194    	; 0x24ee <__stack+0x2ef>
		0,0,0,0,0,0,0,0,0,0,0,0,0,0,0,0,0,0,0,0,0,0,0,0,0,0,0,0,0,0,0,0,0,0,0,0,0,0,0,0,0,0,0,0,0,0,1,0,0,0,1,0,0,0,
		0,0,0,0,0,0,0,0,0,0,0,0,0,0,0,0,0,0,0,0,0,0,0,0,0,0,0,0,0,0,0,0,0,0,0,0,0,0,0,0,0,0,0,0,0,0,0,1,1,0,0,0,0,0,
		0,0,0,0,0,0,0,0,0,0,0,0,0,0,0,0,0,0,0,0,0,0,0,0,0,0,0,0,0,0,0,0,0,0,0,0,0,0,0,0,0,0,0,0,0,0,0,0,1,1,0,0,0,0,
		0,0,0,0,0,0,0,0,0,0,0,0,0,0,0,0,0,0,0,0,0,0,0,0,0,0,0,0,0,0,0,0,0,0,0,0,0,0,0,0,0,0,0,0,0,0,0,0,0,1,1,0,0,0};
	unsigned char cost[vertices][vertices], visited[vertices], i, j, k, min, next, infinity=99;
	for(i=0; i<vertices; i++)
    25b0:	89 81       	ldd	r24, Y+1	; 0x01
    25b2:	8f 5f       	subi	r24, 0xFF	; 255
    25b4:	89 83       	std	Y+1, r24	; 0x01
    25b6:	89 81       	ldd	r24, Y+1	; 0x01
    25b8:	86 33       	cpi	r24, 0x36	; 54
    25ba:	08 f4       	brcc	.+2      	; 0x25be <__stack+0x3bf>
    25bc:	96 cf       	rjmp	.-212    	; 0x24ea <__stack+0x2eb>
				cost[i][j] = infinity;
			else
				cost[i][j] = adj_mat[i][j];
		}
	}
	for(i=0; i<vertices; i++)
    25be:	19 82       	std	Y+1, r1	; 0x01
    25c0:	38 c0       	rjmp	.+112    	; 0x2632 <__stack+0x433>
	{
		dist[i] = cost[src][i];
    25c2:	89 81       	ldd	r24, Y+1	; 0x01
    25c4:	88 2f       	mov	r24, r24
    25c6:	90 e0       	ldi	r25, 0x00	; 0
    25c8:	29 81       	ldd	r18, Y+1	; 0x01
    25ca:	22 2f       	mov	r18, r18
    25cc:	30 e0       	ldi	r19, 0x00	; 0
    25ce:	be 01       	movw	r22, r28
    25d0:	65 59       	subi	r22, 0x95	; 149
    25d2:	74 4f       	sbci	r23, 0xF4	; 244
    25d4:	ae 01       	movw	r20, r28
    25d6:	4b 5f       	subi	r20, 0xFB	; 251
    25d8:	58 4e       	sbci	r21, 0xE8	; 232
    25da:	da 01       	movw	r26, r20
    25dc:	ed 91       	ld	r30, X+
    25de:	fc 91       	ld	r31, X
    25e0:	a6 e3       	ldi	r26, 0x36	; 54
    25e2:	ae 9f       	mul	r26, r30
    25e4:	a0 01       	movw	r20, r0
    25e6:	af 9f       	mul	r26, r31
    25e8:	50 0d       	add	r21, r0
    25ea:	11 24       	eor	r1, r1
    25ec:	46 0f       	add	r20, r22
    25ee:	57 1f       	adc	r21, r23
    25f0:	24 0f       	add	r18, r20
    25f2:	35 1f       	adc	r19, r21
    25f4:	f9 01       	movw	r30, r18
    25f6:	20 81       	ld	r18, Z
    25f8:	83 5e       	subi	r24, 0xE3	; 227
    25fa:	9d 4f       	sbci	r25, 0xFD	; 253
    25fc:	dc 01       	movw	r26, r24
    25fe:	2c 93       	st	X, r18
		pred[i] = src;
    2600:	89 81       	ldd	r24, Y+1	; 0x01
    2602:	88 2f       	mov	r24, r24
    2604:	90 e0       	ldi	r25, 0x00	; 0
    2606:	9e 01       	movw	r18, r28
    2608:	2b 5f       	subi	r18, 0xFB	; 251
    260a:	38 4e       	sbci	r19, 0xE8	; 232
    260c:	f9 01       	movw	r30, r18
    260e:	20 81       	ld	r18, Z
    2610:	8a 53       	subi	r24, 0x3A	; 58
    2612:	9d 4f       	sbci	r25, 0xFD	; 253
    2614:	dc 01       	movw	r26, r24
    2616:	2c 93       	st	X, r18
		visited[i] = 0;
    2618:	89 81       	ldd	r24, Y+1	; 0x01
    261a:	88 2f       	mov	r24, r24
    261c:	90 e0       	ldi	r25, 0x00	; 0
    261e:	9e 01       	movw	r18, r28
    2620:	21 53       	subi	r18, 0x31	; 49
    2622:	39 4e       	sbci	r19, 0xE9	; 233
    2624:	82 0f       	add	r24, r18
    2626:	93 1f       	adc	r25, r19
    2628:	fc 01       	movw	r30, r24
    262a:	10 82       	st	Z, r1
				cost[i][j] = infinity;
			else
				cost[i][j] = adj_mat[i][j];
		}
	}
	for(i=0; i<vertices; i++)
    262c:	89 81       	ldd	r24, Y+1	; 0x01
    262e:	8f 5f       	subi	r24, 0xFF	; 255
    2630:	89 83       	std	Y+1, r24	; 0x01
    2632:	89 81       	ldd	r24, Y+1	; 0x01
    2634:	86 33       	cpi	r24, 0x36	; 54
    2636:	28 f2       	brcs	.-118    	; 0x25c2 <__stack+0x3c3>
	{
		dist[i] = cost[src][i];
		pred[i] = src;
		visited[i] = 0;
	}
	dist[src] = 0;
    2638:	ce 01       	movw	r24, r28
    263a:	8b 5f       	subi	r24, 0xFB	; 251
    263c:	98 4e       	sbci	r25, 0xE8	; 232
    263e:	dc 01       	movw	r26, r24
    2640:	8d 91       	ld	r24, X+
    2642:	9c 91       	ld	r25, X
    2644:	83 5e       	subi	r24, 0xE3	; 227
    2646:	9d 4f       	sbci	r25, 0xFD	; 253
    2648:	fc 01       	movw	r30, r24
    264a:	10 82       	st	Z, r1
	visited[src] = 1;
    264c:	9e 01       	movw	r18, r28
    264e:	21 53       	subi	r18, 0x31	; 49
    2650:	39 4e       	sbci	r19, 0xE9	; 233
    2652:	ce 01       	movw	r24, r28
    2654:	8b 5f       	subi	r24, 0xFB	; 251
    2656:	98 4e       	sbci	r25, 0xE8	; 232
    2658:	dc 01       	movw	r26, r24
    265a:	8d 91       	ld	r24, X+
    265c:	9c 91       	ld	r25, X
    265e:	82 0f       	add	r24, r18
    2660:	93 1f       	adc	r25, r19
    2662:	21 e0       	ldi	r18, 0x01	; 1
    2664:	fc 01       	movw	r30, r24
    2666:	20 83       	st	Z, r18

	for(i=1; i<vertices-1; i++)
    2668:	81 e0       	ldi	r24, 0x01	; 1
    266a:	89 83       	std	Y+1, r24	; 0x01
    266c:	9c c0       	rjmp	.+312    	; 0x27a6 <__stack+0x5a7>
	{
		min = infinity;
    266e:	8e 81       	ldd	r24, Y+6	; 0x06
    2670:	8c 83       	std	Y+4, r24	; 0x04
		for(j=0; j<vertices; j++)
    2672:	1a 82       	std	Y+2, r1	; 0x02
    2674:	23 c0       	rjmp	.+70     	; 0x26bc <__stack+0x4bd>
		{
			if(dist[j]<min && !visited[j])
    2676:	8a 81       	ldd	r24, Y+2	; 0x02
    2678:	88 2f       	mov	r24, r24
    267a:	90 e0       	ldi	r25, 0x00	; 0
    267c:	83 5e       	subi	r24, 0xE3	; 227
    267e:	9d 4f       	sbci	r25, 0xFD	; 253
    2680:	dc 01       	movw	r26, r24
    2682:	9c 91       	ld	r25, X
    2684:	8c 81       	ldd	r24, Y+4	; 0x04
    2686:	98 17       	cp	r25, r24
    2688:	b0 f4       	brcc	.+44     	; 0x26b6 <__stack+0x4b7>
    268a:	8a 81       	ldd	r24, Y+2	; 0x02
    268c:	88 2f       	mov	r24, r24
    268e:	90 e0       	ldi	r25, 0x00	; 0
    2690:	9e 01       	movw	r18, r28
    2692:	21 53       	subi	r18, 0x31	; 49
    2694:	39 4e       	sbci	r19, 0xE9	; 233
    2696:	82 0f       	add	r24, r18
    2698:	93 1f       	adc	r25, r19
    269a:	fc 01       	movw	r30, r24
    269c:	80 81       	ld	r24, Z
    269e:	88 23       	and	r24, r24
    26a0:	51 f4       	brne	.+20     	; 0x26b6 <__stack+0x4b7>
			{
				min = dist[j];
    26a2:	8a 81       	ldd	r24, Y+2	; 0x02
    26a4:	88 2f       	mov	r24, r24
    26a6:	90 e0       	ldi	r25, 0x00	; 0
    26a8:	83 5e       	subi	r24, 0xE3	; 227
    26aa:	9d 4f       	sbci	r25, 0xFD	; 253
    26ac:	dc 01       	movw	r26, r24
    26ae:	8c 91       	ld	r24, X
    26b0:	8c 83       	std	Y+4, r24	; 0x04
				next = j;
    26b2:	8a 81       	ldd	r24, Y+2	; 0x02
    26b4:	8d 83       	std	Y+5, r24	; 0x05
	visited[src] = 1;

	for(i=1; i<vertices-1; i++)
	{
		min = infinity;
		for(j=0; j<vertices; j++)
    26b6:	8a 81       	ldd	r24, Y+2	; 0x02
    26b8:	8f 5f       	subi	r24, 0xFF	; 255
    26ba:	8a 83       	std	Y+2, r24	; 0x02
    26bc:	8a 81       	ldd	r24, Y+2	; 0x02
    26be:	86 33       	cpi	r24, 0x36	; 54
    26c0:	d0 f2       	brcs	.-76     	; 0x2676 <__stack+0x477>
			{
				min = dist[j];
				next = j;
			}
		}
		visited[next] = 1;
    26c2:	8d 81       	ldd	r24, Y+5	; 0x05
    26c4:	88 2f       	mov	r24, r24
    26c6:	90 e0       	ldi	r25, 0x00	; 0
    26c8:	9e 01       	movw	r18, r28
    26ca:	21 53       	subi	r18, 0x31	; 49
    26cc:	39 4e       	sbci	r19, 0xE9	; 233
    26ce:	82 0f       	add	r24, r18
    26d0:	93 1f       	adc	r25, r19
    26d2:	21 e0       	ldi	r18, 0x01	; 1
    26d4:	fc 01       	movw	r30, r24
    26d6:	20 83       	st	Z, r18
		for(k=0; k<vertices; k++)
    26d8:	1b 82       	std	Y+3, r1	; 0x03
    26da:	5e c0       	rjmp	.+188    	; 0x2798 <__stack+0x599>
		{
			if(!visited[k])
    26dc:	8b 81       	ldd	r24, Y+3	; 0x03
    26de:	88 2f       	mov	r24, r24
    26e0:	90 e0       	ldi	r25, 0x00	; 0
    26e2:	9e 01       	movw	r18, r28
    26e4:	21 53       	subi	r18, 0x31	; 49
    26e6:	39 4e       	sbci	r19, 0xE9	; 233
    26e8:	82 0f       	add	r24, r18
    26ea:	93 1f       	adc	r25, r19
    26ec:	dc 01       	movw	r26, r24
    26ee:	8c 91       	ld	r24, X
    26f0:	88 23       	and	r24, r24
    26f2:	09 f0       	breq	.+2      	; 0x26f6 <__stack+0x4f7>
    26f4:	4e c0       	rjmp	.+156    	; 0x2792 <__stack+0x593>
			{
				if(min+cost[next][k]<dist[k])
    26f6:	8c 81       	ldd	r24, Y+4	; 0x04
    26f8:	28 2f       	mov	r18, r24
    26fa:	30 e0       	ldi	r19, 0x00	; 0
    26fc:	8d 81       	ldd	r24, Y+5	; 0x05
    26fe:	e8 2f       	mov	r30, r24
    2700:	f0 e0       	ldi	r31, 0x00	; 0
    2702:	8b 81       	ldd	r24, Y+3	; 0x03
    2704:	88 2f       	mov	r24, r24
    2706:	90 e0       	ldi	r25, 0x00	; 0
    2708:	be 01       	movw	r22, r28
    270a:	65 59       	subi	r22, 0x95	; 149
    270c:	74 4f       	sbci	r23, 0xF4	; 244
    270e:	a6 e3       	ldi	r26, 0x36	; 54
    2710:	ae 9f       	mul	r26, r30
    2712:	a0 01       	movw	r20, r0
    2714:	af 9f       	mul	r26, r31
    2716:	50 0d       	add	r21, r0
    2718:	11 24       	eor	r1, r1
    271a:	46 0f       	add	r20, r22
    271c:	57 1f       	adc	r21, r23
    271e:	84 0f       	add	r24, r20
    2720:	95 1f       	adc	r25, r21
    2722:	fc 01       	movw	r30, r24
    2724:	80 81       	ld	r24, Z
    2726:	88 2f       	mov	r24, r24
    2728:	90 e0       	ldi	r25, 0x00	; 0
    272a:	28 0f       	add	r18, r24
    272c:	39 1f       	adc	r19, r25
    272e:	8b 81       	ldd	r24, Y+3	; 0x03
    2730:	88 2f       	mov	r24, r24
    2732:	90 e0       	ldi	r25, 0x00	; 0
    2734:	83 5e       	subi	r24, 0xE3	; 227
    2736:	9d 4f       	sbci	r25, 0xFD	; 253
    2738:	dc 01       	movw	r26, r24
    273a:	8c 91       	ld	r24, X
    273c:	88 2f       	mov	r24, r24
    273e:	90 e0       	ldi	r25, 0x00	; 0
    2740:	28 17       	cp	r18, r24
    2742:	39 07       	cpc	r19, r25
    2744:	34 f5       	brge	.+76     	; 0x2792 <__stack+0x593>
				{
					dist[k] = min+cost[next][k];
    2746:	8b 81       	ldd	r24, Y+3	; 0x03
    2748:	88 2f       	mov	r24, r24
    274a:	90 e0       	ldi	r25, 0x00	; 0
    274c:	2d 81       	ldd	r18, Y+5	; 0x05
    274e:	e2 2f       	mov	r30, r18
    2750:	f0 e0       	ldi	r31, 0x00	; 0
    2752:	2b 81       	ldd	r18, Y+3	; 0x03
    2754:	22 2f       	mov	r18, r18
    2756:	30 e0       	ldi	r19, 0x00	; 0
    2758:	be 01       	movw	r22, r28
    275a:	65 59       	subi	r22, 0x95	; 149
    275c:	74 4f       	sbci	r23, 0xF4	; 244
    275e:	a6 e3       	ldi	r26, 0x36	; 54
    2760:	ae 9f       	mul	r26, r30
    2762:	a0 01       	movw	r20, r0
    2764:	af 9f       	mul	r26, r31
    2766:	50 0d       	add	r21, r0
    2768:	11 24       	eor	r1, r1
    276a:	46 0f       	add	r20, r22
    276c:	57 1f       	adc	r21, r23
    276e:	24 0f       	add	r18, r20
    2770:	35 1f       	adc	r19, r21
    2772:	f9 01       	movw	r30, r18
    2774:	30 81       	ld	r19, Z
    2776:	2c 81       	ldd	r18, Y+4	; 0x04
    2778:	23 0f       	add	r18, r19
    277a:	83 5e       	subi	r24, 0xE3	; 227
    277c:	9d 4f       	sbci	r25, 0xFD	; 253
    277e:	dc 01       	movw	r26, r24
    2780:	2c 93       	st	X, r18
					pred[k] = next;
    2782:	8b 81       	ldd	r24, Y+3	; 0x03
    2784:	88 2f       	mov	r24, r24
    2786:	90 e0       	ldi	r25, 0x00	; 0
    2788:	8a 53       	subi	r24, 0x3A	; 58
    278a:	9d 4f       	sbci	r25, 0xFD	; 253
    278c:	2d 81       	ldd	r18, Y+5	; 0x05
    278e:	fc 01       	movw	r30, r24
    2790:	20 83       	st	Z, r18
				min = dist[j];
				next = j;
			}
		}
		visited[next] = 1;
		for(k=0; k<vertices; k++)
    2792:	8b 81       	ldd	r24, Y+3	; 0x03
    2794:	8f 5f       	subi	r24, 0xFF	; 255
    2796:	8b 83       	std	Y+3, r24	; 0x03
    2798:	8b 81       	ldd	r24, Y+3	; 0x03
    279a:	86 33       	cpi	r24, 0x36	; 54
    279c:	08 f4       	brcc	.+2      	; 0x27a0 <__stack+0x5a1>
    279e:	9e cf       	rjmp	.-196    	; 0x26dc <__stack+0x4dd>
		visited[i] = 0;
	}
	dist[src] = 0;
	visited[src] = 1;

	for(i=1; i<vertices-1; i++)
    27a0:	89 81       	ldd	r24, Y+1	; 0x01
    27a2:	8f 5f       	subi	r24, 0xFF	; 255
    27a4:	89 83       	std	Y+1, r24	; 0x01
    27a6:	89 81       	ldd	r24, Y+1	; 0x01
    27a8:	85 33       	cpi	r24, 0x35	; 53
    27aa:	08 f4       	brcc	.+2      	; 0x27ae <__stack+0x5af>
    27ac:	60 cf       	rjmp	.-320    	; 0x266e <__stack+0x46f>
					pred[k] = next;
				}
			}
		}
	}
}
    27ae:	00 00       	nop
    27b0:	ca 5f       	subi	r28, 0xFA	; 250
    27b2:	d8 4e       	sbci	r29, 0xE8	; 232
    27b4:	0f b6       	in	r0, 0x3f	; 63
    27b6:	f8 94       	cli
    27b8:	de bf       	out	0x3e, r29	; 62
    27ba:	0f be       	out	0x3f, r0	; 63
    27bc:	cd bf       	out	0x3d, r28	; 61
    27be:	df 91       	pop	r29
    27c0:	cf 91       	pop	r28
    27c2:	08 95       	ret

000027c4 <main>:

//Main Function
int main()
{
    27c4:	cf 93       	push	r28
    27c6:	df 93       	push	r29
    27c8:	cd b7       	in	r28, 0x3d	; 61
    27ca:	de b7       	in	r29, 0x3e	; 62
    27cc:	c5 54       	subi	r28, 0x45	; 69
    27ce:	d1 09       	sbc	r29, r1
    27d0:	0f b6       	in	r0, 0x3f	; 63
    27d2:	f8 94       	cli
    27d4:	de bf       	out	0x3e, r29	; 62
    27d6:	0f be       	out	0x3f, r0	; 63
    27d8:	cd bf       	out	0x3d, r28	; 61
	unsigned char flag = 0, source=5, destination=53, route[15], i, j=0, node_count;
    27da:	1c 82       	std	Y+4, r1	; 0x04
    27dc:	85 e0       	ldi	r24, 0x05	; 5
    27de:	8d 83       	std	Y+5, r24	; 0x05
    27e0:	85 e3       	ldi	r24, 0x35	; 53
    27e2:	8e 83       	std	Y+6, r24	; 0x06
    27e4:	1a 82       	std	Y+2, r1	; 0x02
	struct coordinates pre_point, cur_point, next_point; 
	pre_point.x=5;
    27e6:	ce 01       	movw	r24, r28
    27e8:	80 5c       	subi	r24, 0xC0	; 192
    27ea:	9f 4f       	sbci	r25, 0xFF	; 255
    27ec:	25 e0       	ldi	r18, 0x05	; 5
    27ee:	fc 01       	movw	r30, r24
    27f0:	20 83       	st	Z, r18
	pre_point.y=0;
    27f2:	ce 01       	movw	r24, r28
    27f4:	80 5c       	subi	r24, 0xC0	; 192
    27f6:	9f 4f       	sbci	r25, 0xFF	; 255
    27f8:	fc 01       	movw	r30, r24
    27fa:	11 82       	std	Z+1, r1	; 0x01
	
	init_devices();
    27fc:	7e da       	rcall	.-2820   	; 0x1cfa <init_devices>
	lcd_set_4bit();
    27fe:	0e 94 94 00 	call	0x128	; 0x128 <lcd_set_4bit>
	lcd_init();
    2802:	0e 94 3d 06 	call	0xc7a	; 0xc7a <lcd_init>
	
	assign_cords();
    2806:	88 da       	rcall	.-2800   	; 0x1d18 <assign_cords>
	dijkstra(source);
    2808:	8d 81       	ldd	r24, Y+5	; 0x05
    280a:	88 2f       	mov	r24, r24
    280c:	90 e0       	ldi	r25, 0x00	; 0
    280e:	f6 da       	rcall	.-2580   	; 0x1dfc <dijkstra>
	
	node_count = dist[destination];
    2810:	8e 81       	ldd	r24, Y+6	; 0x06
    2812:	88 2f       	mov	r24, r24
    2814:	90 e0       	ldi	r25, 0x00	; 0
    2816:	83 5e       	subi	r24, 0xE3	; 227
    2818:	9d 4f       	sbci	r25, 0xFD	; 253
    281a:	fc 01       	movw	r30, r24
    281c:	80 81       	ld	r24, Z
    281e:	8b 83       	std	Y+3, r24	; 0x03
	i=destination;
    2820:	8e 81       	ldd	r24, Y+6	; 0x06
    2822:	89 83       	std	Y+1, r24	; 0x01
	while(i!=source)
    2824:	16 c0       	rjmp	.+44     	; 0x2852 <main+0x8e>
	{
		route[j++]=i;
    2826:	8a 81       	ldd	r24, Y+2	; 0x02
    2828:	91 e0       	ldi	r25, 0x01	; 1
    282a:	98 0f       	add	r25, r24
    282c:	9a 83       	std	Y+2, r25	; 0x02
    282e:	88 2f       	mov	r24, r24
    2830:	90 e0       	ldi	r25, 0x00	; 0
    2832:	9e 01       	movw	r18, r28
    2834:	2f 5c       	subi	r18, 0xCF	; 207
    2836:	3f 4f       	sbci	r19, 0xFF	; 255
    2838:	82 0f       	add	r24, r18
    283a:	93 1f       	adc	r25, r19
    283c:	29 81       	ldd	r18, Y+1	; 0x01
    283e:	fc 01       	movw	r30, r24
    2840:	20 83       	st	Z, r18
		i=pred[i];
    2842:	89 81       	ldd	r24, Y+1	; 0x01
    2844:	88 2f       	mov	r24, r24
    2846:	90 e0       	ldi	r25, 0x00	; 0
    2848:	8a 53       	subi	r24, 0x3A	; 58
    284a:	9d 4f       	sbci	r25, 0xFD	; 253
    284c:	fc 01       	movw	r30, r24
    284e:	80 81       	ld	r24, Z
    2850:	89 83       	std	Y+1, r24	; 0x01
	assign_cords();
	dijkstra(source);
	
	node_count = dist[destination];
	i=destination;
	while(i!=source)
    2852:	99 81       	ldd	r25, Y+1	; 0x01
    2854:	8d 81       	ldd	r24, Y+5	; 0x05
    2856:	98 17       	cp	r25, r24
    2858:	31 f7       	brne	.-52     	; 0x2826 <main+0x62>
	{
		route[j++]=i;
		i=pred[i];
	}
	route[j]=source;
    285a:	8a 81       	ldd	r24, Y+2	; 0x02
    285c:	88 2f       	mov	r24, r24
    285e:	90 e0       	ldi	r25, 0x00	; 0
    2860:	9e 01       	movw	r18, r28
    2862:	2f 5c       	subi	r18, 0xCF	; 207
    2864:	3f 4f       	sbci	r19, 0xFF	; 255
    2866:	82 0f       	add	r24, r18
    2868:	93 1f       	adc	r25, r19
    286a:	2d 81       	ldd	r18, Y+5	; 0x05
    286c:	fc 01       	movw	r30, r24
	
	forward();	//start moving
    286e:	20 83       	st	Z, r18
	velocity(130, 130);
    2870:	20 d9       	rcall	.-3520   	; 0x1ab2 <forward>
    2872:	62 e8       	ldi	r22, 0x82	; 130
    2874:	82 e8       	ldi	r24, 0x82	; 130
    2876:	c6 d8       	rcall	.-3700   	; 0x1a04 <velocity>
	lcd_print(2, 1, co_ords[source].x, 2);
    2878:	8d 81       	ldd	r24, Y+5	; 0x05
    287a:	88 2f       	mov	r24, r24
    287c:	90 e0       	ldi	r25, 0x00	; 0
    287e:	88 0f       	add	r24, r24
    2880:	99 1f       	adc	r25, r25
    2882:	86 5a       	subi	r24, 0xA6	; 166
    2884:	9d 4f       	sbci	r25, 0xFD	; 253
    2886:	fc 01       	movw	r30, r24
    2888:	80 81       	ld	r24, Z
    288a:	88 2f       	mov	r24, r24
    288c:	90 e0       	ldi	r25, 0x00	; 0
    288e:	22 e0       	ldi	r18, 0x02	; 2
    2890:	30 e0       	ldi	r19, 0x00	; 0
    2892:	ac 01       	movw	r20, r24
    2894:	61 e0       	ldi	r22, 0x01	; 1
    2896:	82 e0       	ldi	r24, 0x02	; 2
    2898:	0e 94 ed 09 	call	0x13da	; 0x13da <lcd_print>
	lcd_print(2, 4, co_ords[source].y, 2);
    289c:	8d 81       	ldd	r24, Y+5	; 0x05
    289e:	88 2f       	mov	r24, r24
    28a0:	90 e0       	ldi	r25, 0x00	; 0
    28a2:	88 0f       	add	r24, r24
    28a4:	99 1f       	adc	r25, r25
    28a6:	85 5a       	subi	r24, 0xA5	; 165
    28a8:	9d 4f       	sbci	r25, 0xFD	; 253
    28aa:	fc 01       	movw	r30, r24
    28ac:	80 81       	ld	r24, Z
    28ae:	88 2f       	mov	r24, r24
    28b0:	90 e0       	ldi	r25, 0x00	; 0
    28b2:	22 e0       	ldi	r18, 0x02	; 2
    28b4:	30 e0       	ldi	r19, 0x00	; 0
    28b6:	ac 01       	movw	r20, r24
    28b8:	64 e0       	ldi	r22, 0x04	; 4
    28ba:	82 e0       	ldi	r24, 0x02	; 2
    28bc:	0e 94 ed 09 	call	0x13da	; 0x13da <lcd_print>
	lcd_print(2, 8, co_ords[destination].x, 2);
    28c0:	8e 81       	ldd	r24, Y+6	; 0x06
    28c2:	88 2f       	mov	r24, r24
    28c4:	90 e0       	ldi	r25, 0x00	; 0
    28c6:	88 0f       	add	r24, r24
    28c8:	99 1f       	adc	r25, r25
    28ca:	86 5a       	subi	r24, 0xA6	; 166
    28cc:	9d 4f       	sbci	r25, 0xFD	; 253
    28ce:	fc 01       	movw	r30, r24
    28d0:	80 81       	ld	r24, Z
    28d2:	88 2f       	mov	r24, r24
    28d4:	90 e0       	ldi	r25, 0x00	; 0
    28d6:	22 e0       	ldi	r18, 0x02	; 2
    28d8:	30 e0       	ldi	r19, 0x00	; 0
    28da:	ac 01       	movw	r20, r24
    28dc:	68 e0       	ldi	r22, 0x08	; 8
    28de:	82 e0       	ldi	r24, 0x02	; 2
    28e0:	0e 94 ed 09 	call	0x13da	; 0x13da <lcd_print>
	lcd_print(2, 11, co_ords[destination].y, 2);
    28e4:	8e 81       	ldd	r24, Y+6	; 0x06
    28e6:	88 2f       	mov	r24, r24
    28e8:	90 e0       	ldi	r25, 0x00	; 0
    28ea:	88 0f       	add	r24, r24
    28ec:	99 1f       	adc	r25, r25
    28ee:	85 5a       	subi	r24, 0xA5	; 165
    28f0:	9d 4f       	sbci	r25, 0xFD	; 253
    28f2:	fc 01       	movw	r30, r24
    28f4:	80 81       	ld	r24, Z
    28f6:	88 2f       	mov	r24, r24
    28f8:	90 e0       	ldi	r25, 0x00	; 0
    28fa:	22 e0       	ldi	r18, 0x02	; 2
    28fc:	30 e0       	ldi	r19, 0x00	; 0
    28fe:	ac 01       	movw	r20, r24
    2900:	6b e0       	ldi	r22, 0x0B	; 11
    2902:	82 e0       	ldi	r24, 0x02	; 2
	
	while(1)
	{
		forward();
    2904:	0e 94 ed 09 	call	0x13da	; 0x13da <lcd_print>
		Left_white_line = ADC_Conversion(3);	//Getting data of Left WL Sensor
    2908:	d4 d8       	rcall	.-3672   	; 0x1ab2 <forward>
    290a:	83 e0       	ldi	r24, 0x03	; 3
    290c:	37 d8       	rcall	.-3986   	; 0x197c <ADC_Conversion>
		Center_white_line = ADC_Conversion(2);	//Getting data of Center WL Sensor
    290e:	80 93 0c 02 	sts	0x020C, r24	; 0x80020c <__data_end>
    2912:	82 e0       	ldi	r24, 0x02	; 2
    2914:	33 d8       	rcall	.-3994   	; 0x197c <ADC_Conversion>
		Right_white_line = ADC_Conversion(1);	//Getting data of Right WL Sensor
    2916:	80 93 0d 02 	sts	0x020D, r24	; 0x80020d <Center_white_line>
    291a:	81 e0       	ldi	r24, 0x01	; 1
    291c:	2f d8       	rcall	.-4002   	; 0x197c <ADC_Conversion>
		
		print_sensor(1,1,3);	//Prints value of White Line Sensor1
    291e:	80 93 0e 02 	sts	0x020E, r24	; 0x80020e <Right_white_line>
    2922:	43 e0       	ldi	r20, 0x03	; 3
    2924:	61 e0       	ldi	r22, 0x01	; 1
		print_sensor(1,5,2);	//Prints Value of White Line Sensor2
    2926:	81 e0       	ldi	r24, 0x01	; 1
    2928:	a7 d8       	rcall	.-3762   	; 0x1a78 <print_sensor>
    292a:	42 e0       	ldi	r20, 0x02	; 2
    292c:	65 e0       	ldi	r22, 0x05	; 5
    292e:	81 e0       	ldi	r24, 0x01	; 1
		print_sensor(1,9,1);	//Prints Value of White Line Sensor3
    2930:	a3 d8       	rcall	.-3770   	; 0x1a78 <print_sensor>
    2932:	41 e0       	ldi	r20, 0x01	; 1
    2934:	69 e0       	ldi	r22, 0x09	; 9
    2936:	81 e0       	ldi	r24, 0x01	; 1
    2938:	9f d8       	rcall	.-3778   	; 0x1a78 <print_sensor>
		
		lcd_print(2, 15, dist[destination], 2);
    293a:	8e 81       	ldd	r24, Y+6	; 0x06
    293c:	88 2f       	mov	r24, r24
    293e:	90 e0       	ldi	r25, 0x00	; 0
    2940:	83 5e       	subi	r24, 0xE3	; 227
    2942:	9d 4f       	sbci	r25, 0xFD	; 253
    2944:	fc 01       	movw	r30, r24
    2946:	80 81       	ld	r24, Z
    2948:	88 2f       	mov	r24, r24
    294a:	90 e0       	ldi	r25, 0x00	; 0
    294c:	22 e0       	ldi	r18, 0x02	; 2
    294e:	30 e0       	ldi	r19, 0x00	; 0
    2950:	ac 01       	movw	r20, r24
    2952:	6f e0       	ldi	r22, 0x0F	; 15
    2954:	82 e0       	ldi	r24, 0x02	; 2
    2956:	0e 94 ed 09 	call	0x13da	; 0x13da <lcd_print>
		
		//node detection
		if(Center_white_line>Threshold && Left_white_line>Threshold && Right_white_line>Threshold)	//node found
    295a:	80 91 0d 02 	lds	r24, 0x020D	; 0x80020d <Center_white_line>
    295e:	8f 31       	cpi	r24, 0x1F	; 31
    2960:	08 f4       	brcc	.+2      	; 0x2964 <main+0x1a0>
    2962:	d1 c2       	rjmp	.+1442   	; 0x2f06 <main+0x742>
    2964:	80 91 0c 02 	lds	r24, 0x020C	; 0x80020c <__data_end>
    2968:	8f 31       	cpi	r24, 0x1F	; 31
    296a:	08 f4       	brcc	.+2      	; 0x296e <main+0x1aa>
    296c:	cc c2       	rjmp	.+1432   	; 0x2f06 <main+0x742>
    296e:	80 91 0e 02 	lds	r24, 0x020E	; 0x80020e <Right_white_line>
    2972:	8f 31       	cpi	r24, 0x1F	; 31
    2974:	08 f4       	brcc	.+2      	; 0x2978 <main+0x1b4>
    2976:	c7 c2       	rjmp	.+1422   	; 0x2f06 <main+0x742>
		{
			cur_point.x=co_ords[route[node_count]].x;
    2978:	8b 81       	ldd	r24, Y+3	; 0x03
    297a:	88 2f       	mov	r24, r24
    297c:	90 e0       	ldi	r25, 0x00	; 0
    297e:	9e 01       	movw	r18, r28
    2980:	2f 5c       	subi	r18, 0xCF	; 207
    2982:	3f 4f       	sbci	r19, 0xFF	; 255
    2984:	82 0f       	add	r24, r18
    2986:	93 1f       	adc	r25, r19
    2988:	fc 01       	movw	r30, r24
    298a:	80 81       	ld	r24, Z
    298c:	88 2f       	mov	r24, r24
    298e:	90 e0       	ldi	r25, 0x00	; 0
    2990:	88 0f       	add	r24, r24
    2992:	99 1f       	adc	r25, r25
    2994:	86 5a       	subi	r24, 0xA6	; 166
    2996:	9d 4f       	sbci	r25, 0xFD	; 253
    2998:	fc 01       	movw	r30, r24
    299a:	20 81       	ld	r18, Z
    299c:	ce 01       	movw	r24, r28
    299e:	8e 5b       	subi	r24, 0xBE	; 190
    29a0:	9f 4f       	sbci	r25, 0xFF	; 255
    29a2:	fc 01       	movw	r30, r24
    29a4:	20 83       	st	Z, r18
			cur_point.y=co_ords[route[node_count]].y;
    29a6:	8b 81       	ldd	r24, Y+3	; 0x03
    29a8:	88 2f       	mov	r24, r24
    29aa:	90 e0       	ldi	r25, 0x00	; 0
    29ac:	9e 01       	movw	r18, r28
    29ae:	2f 5c       	subi	r18, 0xCF	; 207
    29b0:	3f 4f       	sbci	r19, 0xFF	; 255
    29b2:	82 0f       	add	r24, r18
    29b4:	93 1f       	adc	r25, r19
    29b6:	fc 01       	movw	r30, r24
    29b8:	80 81       	ld	r24, Z
    29ba:	88 2f       	mov	r24, r24
    29bc:	90 e0       	ldi	r25, 0x00	; 0
    29be:	88 0f       	add	r24, r24
    29c0:	99 1f       	adc	r25, r25
    29c2:	85 5a       	subi	r24, 0xA5	; 165
    29c4:	9d 4f       	sbci	r25, 0xFD	; 253
    29c6:	fc 01       	movw	r30, r24
    29c8:	20 81       	ld	r18, Z
    29ca:	ce 01       	movw	r24, r28
    29cc:	8e 5b       	subi	r24, 0xBE	; 190
    29ce:	9f 4f       	sbci	r25, 0xFF	; 255
    29d0:	fc 01       	movw	r30, r24
    29d2:	21 83       	std	Z+1, r18	; 0x01
			PORTC = PORTC | 0x08;	//beep buzzer
    29d4:	88 e2       	ldi	r24, 0x28	; 40
    29d6:	90 e0       	ldi	r25, 0x00	; 0
    29d8:	28 e2       	ldi	r18, 0x28	; 40
    29da:	30 e0       	ldi	r19, 0x00	; 0
    29dc:	f9 01       	movw	r30, r18
    29de:	20 81       	ld	r18, Z
    29e0:	28 60       	ori	r18, 0x08	; 8
    29e2:	fc 01       	movw	r30, r24
    29e4:	20 83       	st	Z, r18
    29e6:	80 e0       	ldi	r24, 0x00	; 0
    29e8:	90 e0       	ldi	r25, 0x00	; 0
    29ea:	a0 ef       	ldi	r26, 0xF0	; 240
    29ec:	b1 e4       	ldi	r27, 0x41	; 65
    29ee:	8f 87       	std	Y+15, r24	; 0x0f
    29f0:	98 8b       	std	Y+16, r25	; 0x10
    29f2:	a9 8b       	std	Y+17, r26	; 0x11

	__builtin_avr_delay_cycles(__ticks_dc);

#else
	uint16_t __ticks;
	__tmp = ((F_CPU) / 4e3) * __ms;
    29f4:	ba 8b       	std	Y+18, r27	; 0x12
    29f6:	26 e6       	ldi	r18, 0x66	; 102
    29f8:	36 e6       	ldi	r19, 0x66	; 102
    29fa:	46 e6       	ldi	r20, 0x66	; 102
    29fc:	55 e4       	ldi	r21, 0x45	; 69
    29fe:	6f 85       	ldd	r22, Y+15	; 0x0f
    2a00:	78 89       	ldd	r23, Y+16	; 0x10
    2a02:	89 89       	ldd	r24, Y+17	; 0x11
    2a04:	9a 89       	ldd	r25, Y+18	; 0x12
    2a06:	f5 d3       	rcall	.+2026   	; 0x31f2 <__mulsf3>
    2a08:	dc 01       	movw	r26, r24
    2a0a:	cb 01       	movw	r24, r22
    2a0c:	8b 8b       	std	Y+19, r24	; 0x13
    2a0e:	9c 8b       	std	Y+20, r25	; 0x14
    2a10:	ad 8b       	std	Y+21, r26	; 0x15
	if (__tmp < 1.0)
    2a12:	be 8b       	std	Y+22, r27	; 0x16
    2a14:	20 e0       	ldi	r18, 0x00	; 0
    2a16:	30 e0       	ldi	r19, 0x00	; 0
    2a18:	40 e8       	ldi	r20, 0x80	; 128
    2a1a:	5f e3       	ldi	r21, 0x3F	; 63
    2a1c:	6b 89       	ldd	r22, Y+19	; 0x13
    2a1e:	7c 89       	ldd	r23, Y+20	; 0x14
    2a20:	8d 89       	ldd	r24, Y+21	; 0x15
    2a22:	9e 89       	ldd	r25, Y+22	; 0x16
    2a24:	98 d2       	rcall	.+1328   	; 0x2f56 <__cmpsf2>
    2a26:	88 23       	and	r24, r24
		__ticks = 1;
    2a28:	2c f4       	brge	.+10     	; 0x2a34 <main+0x270>
    2a2a:	81 e0       	ldi	r24, 0x01	; 1
    2a2c:	90 e0       	ldi	r25, 0x00	; 0
    2a2e:	98 8f       	std	Y+24, r25	; 0x18
    2a30:	8f 8b       	std	Y+23, r24	; 0x17
	else if (__tmp > 65535)
    2a32:	3b c0       	rjmp	.+118    	; 0x2aaa <main+0x2e6>
    2a34:	20 e0       	ldi	r18, 0x00	; 0
    2a36:	3f ef       	ldi	r19, 0xFF	; 255
    2a38:	4f e7       	ldi	r20, 0x7F	; 127
    2a3a:	57 e4       	ldi	r21, 0x47	; 71
    2a3c:	6b 89       	ldd	r22, Y+19	; 0x13
    2a3e:	7c 89       	ldd	r23, Y+20	; 0x14
    2a40:	8d 89       	ldd	r24, Y+21	; 0x15
    2a42:	9e 89       	ldd	r25, Y+22	; 0x16
    2a44:	d2 d3       	rcall	.+1956   	; 0x31ea <__gesf2>
	{
		//	__ticks = requested delay in 1/10 ms
		__ticks = (uint16_t) (__ms * 10.0);
    2a46:	18 16       	cp	r1, r24
    2a48:	3c f5       	brge	.+78     	; 0x2a98 <main+0x2d4>
    2a4a:	20 e0       	ldi	r18, 0x00	; 0
    2a4c:	30 e0       	ldi	r19, 0x00	; 0
    2a4e:	40 e2       	ldi	r20, 0x20	; 32
    2a50:	51 e4       	ldi	r21, 0x41	; 65
    2a52:	6f 85       	ldd	r22, Y+15	; 0x0f
    2a54:	78 89       	ldd	r23, Y+16	; 0x10
    2a56:	89 89       	ldd	r24, Y+17	; 0x11
    2a58:	9a 89       	ldd	r25, Y+18	; 0x12
    2a5a:	cb d3       	rcall	.+1942   	; 0x31f2 <__mulsf3>
    2a5c:	dc 01       	movw	r26, r24
    2a5e:	cb 01       	movw	r24, r22
    2a60:	bc 01       	movw	r22, r24
    2a62:	cd 01       	movw	r24, r26
    2a64:	e4 d2       	rcall	.+1480   	; 0x302e <__fixunssfsi>
    2a66:	dc 01       	movw	r26, r24
    2a68:	cb 01       	movw	r24, r22
    2a6a:	98 8f       	std	Y+24, r25	; 0x18
    2a6c:	8f 8b       	std	Y+23, r24	; 0x17
    2a6e:	0f c0       	rjmp	.+30     	; 0x2a8e <main+0x2ca>
    2a70:	80 e7       	ldi	r24, 0x70	; 112
    2a72:	91 e0       	ldi	r25, 0x01	; 1
    2a74:	9a 8f       	std	Y+26, r25	; 0x1a
    2a76:	89 8f       	std	Y+25, r24	; 0x19
    milliseconds can be achieved.
 */
void
_delay_loop_2(uint16_t __count)
{
	__asm__ volatile (
    2a78:	89 8d       	ldd	r24, Y+25	; 0x19
    2a7a:	9a 8d       	ldd	r25, Y+26	; 0x1a
    2a7c:	01 97       	sbiw	r24, 0x01	; 1
    2a7e:	f1 f7       	brne	.-4      	; 0x2a7c <main+0x2b8>
    2a80:	9a 8f       	std	Y+26, r25	; 0x1a
		while(__ticks)
		{
			// wait 1/10 ms
			_delay_loop_2(((F_CPU) / 4e3) / 10);
			__ticks --;
    2a82:	89 8f       	std	Y+25, r24	; 0x19
    2a84:	8f 89       	ldd	r24, Y+23	; 0x17
    2a86:	98 8d       	ldd	r25, Y+24	; 0x18
    2a88:	01 97       	sbiw	r24, 0x01	; 1
    2a8a:	98 8f       	std	Y+24, r25	; 0x18
		__ticks = 1;
	else if (__tmp > 65535)
	{
		//	__ticks = requested delay in 1/10 ms
		__ticks = (uint16_t) (__ms * 10.0);
		while(__ticks)
    2a8c:	8f 8b       	std	Y+23, r24	; 0x17
    2a8e:	8f 89       	ldd	r24, Y+23	; 0x17
    2a90:	98 8d       	ldd	r25, Y+24	; 0x18
    2a92:	89 2b       	or	r24, r25
    2a94:	69 f7       	brne	.-38     	; 0x2a70 <main+0x2ac>
			__ticks --;
		}
		return;
	}
	else
		__ticks = (uint16_t)__tmp;
    2a96:	13 c0       	rjmp	.+38     	; 0x2abe <main+0x2fa>
    2a98:	6b 89       	ldd	r22, Y+19	; 0x13
    2a9a:	7c 89       	ldd	r23, Y+20	; 0x14
    2a9c:	8d 89       	ldd	r24, Y+21	; 0x15
    2a9e:	9e 89       	ldd	r25, Y+22	; 0x16
    2aa0:	c6 d2       	rcall	.+1420   	; 0x302e <__fixunssfsi>
    2aa2:	dc 01       	movw	r26, r24
    2aa4:	cb 01       	movw	r24, r22
    2aa6:	98 8f       	std	Y+24, r25	; 0x18
    2aa8:	8f 8b       	std	Y+23, r24	; 0x17
    2aaa:	8f 89       	ldd	r24, Y+23	; 0x17
    2aac:	98 8d       	ldd	r25, Y+24	; 0x18
    2aae:	9c 8f       	std	Y+28, r25	; 0x1c
    2ab0:	8b 8f       	std	Y+27, r24	; 0x1b
    2ab2:	8b 8d       	ldd	r24, Y+27	; 0x1b
    2ab4:	9c 8d       	ldd	r25, Y+28	; 0x1c
    2ab6:	01 97       	sbiw	r24, 0x01	; 1
    2ab8:	f1 f7       	brne	.-4      	; 0x2ab6 <main+0x2f2>
    2aba:	9c 8f       	std	Y+28, r25	; 0x1c
    2abc:	8b 8f       	std	Y+27, r24	; 0x1b
			_delay_ms(30);
			PORTC = PORTC & 0xf7;
    2abe:	88 e2       	ldi	r24, 0x28	; 40
    2ac0:	90 e0       	ldi	r25, 0x00	; 0
    2ac2:	28 e2       	ldi	r18, 0x28	; 40
    2ac4:	30 e0       	ldi	r19, 0x00	; 0
    2ac6:	f9 01       	movw	r30, r18
    2ac8:	20 81       	ld	r18, Z
    2aca:	27 7f       	andi	r18, 0xF7	; 247
    2acc:	fc 01       	movw	r30, r24
    2ace:	20 83       	st	Z, r18
			
			lcd_print(2, 1, cur_point.x, 2);
    2ad0:	ce 01       	movw	r24, r28
    2ad2:	8e 5b       	subi	r24, 0xBE	; 190
    2ad4:	9f 4f       	sbci	r25, 0xFF	; 255
    2ad6:	fc 01       	movw	r30, r24
    2ad8:	80 81       	ld	r24, Z
    2ada:	88 2f       	mov	r24, r24
    2adc:	90 e0       	ldi	r25, 0x00	; 0
    2ade:	22 e0       	ldi	r18, 0x02	; 2
    2ae0:	30 e0       	ldi	r19, 0x00	; 0
    2ae2:	ac 01       	movw	r20, r24
    2ae4:	61 e0       	ldi	r22, 0x01	; 1
    2ae6:	82 e0       	ldi	r24, 0x02	; 2
    2ae8:	0e 94 ed 09 	call	0x13da	; 0x13da <lcd_print>
			lcd_print(2, 4, cur_point.y, 2);
    2aec:	ce 01       	movw	r24, r28
    2aee:	8e 5b       	subi	r24, 0xBE	; 190
    2af0:	9f 4f       	sbci	r25, 0xFF	; 255
    2af2:	fc 01       	movw	r30, r24
    2af4:	81 81       	ldd	r24, Z+1	; 0x01
    2af6:	88 2f       	mov	r24, r24
    2af8:	90 e0       	ldi	r25, 0x00	; 0
    2afa:	22 e0       	ldi	r18, 0x02	; 2
    2afc:	30 e0       	ldi	r19, 0x00	; 0
    2afe:	ac 01       	movw	r20, r24
    2b00:	64 e0       	ldi	r22, 0x04	; 4
    2b02:	82 e0       	ldi	r24, 0x02	; 2
    2b04:	0e 94 ed 09 	call	0x13da	; 0x13da <lcd_print>
			
			if(cur_point.x==co_ords[destination].x && cur_point.y==co_ords[destination].y)
    2b08:	ce 01       	movw	r24, r28
    2b0a:	8e 5b       	subi	r24, 0xBE	; 190
    2b0c:	9f 4f       	sbci	r25, 0xFF	; 255
    2b0e:	fc 01       	movw	r30, r24
    2b10:	20 81       	ld	r18, Z
    2b12:	8e 81       	ldd	r24, Y+6	; 0x06
    2b14:	88 2f       	mov	r24, r24
    2b16:	90 e0       	ldi	r25, 0x00	; 0
    2b18:	88 0f       	add	r24, r24
    2b1a:	99 1f       	adc	r25, r25
    2b1c:	86 5a       	subi	r24, 0xA6	; 166
    2b1e:	9d 4f       	sbci	r25, 0xFD	; 253
    2b20:	fc 01       	movw	r30, r24
    2b22:	80 81       	ld	r24, Z
    2b24:	28 17       	cp	r18, r24
    2b26:	09 f0       	breq	.+2      	; 0x2b2a <main+0x366>
    2b28:	02 c1       	rjmp	.+516    	; 0x2d2e <main+0x56a>
    2b2a:	ce 01       	movw	r24, r28
    2b2c:	8e 5b       	subi	r24, 0xBE	; 190
    2b2e:	9f 4f       	sbci	r25, 0xFF	; 255
    2b30:	fc 01       	movw	r30, r24
    2b32:	21 81       	ldd	r18, Z+1	; 0x01
    2b34:	8e 81       	ldd	r24, Y+6	; 0x06
    2b36:	88 2f       	mov	r24, r24
    2b38:	90 e0       	ldi	r25, 0x00	; 0
    2b3a:	88 0f       	add	r24, r24
    2b3c:	99 1f       	adc	r25, r25
    2b3e:	85 5a       	subi	r24, 0xA5	; 165
    2b40:	9d 4f       	sbci	r25, 0xFD	; 253
    2b42:	fc 01       	movw	r30, r24
    2b44:	80 81       	ld	r24, Z
    2b46:	28 17       	cp	r18, r24
    2b48:	09 f0       	breq	.+2      	; 0x2b4c <main+0x388>
    2b4a:	f1 c0       	rjmp	.+482    	; 0x2d2e <main+0x56a>
			{
				stop();
    2b4c:	0e 94 63 0d 	call	0x1ac6	; 0x1ac6 <stop>
				velocity(0, 0);
    2b50:	60 e0       	ldi	r22, 0x00	; 0
    2b52:	80 e0       	ldi	r24, 0x00	; 0
    2b54:	0e 94 02 0d 	call	0x1a04	; 0x1a04 <velocity>
				while(1)
				{
					PORTC = PORTC | 0x08;	//beep buzzer
    2b58:	88 e2       	ldi	r24, 0x28	; 40
    2b5a:	90 e0       	ldi	r25, 0x00	; 0
    2b5c:	28 e2       	ldi	r18, 0x28	; 40
    2b5e:	30 e0       	ldi	r19, 0x00	; 0
    2b60:	f9 01       	movw	r30, r18
    2b62:	20 81       	ld	r18, Z
    2b64:	28 60       	ori	r18, 0x08	; 8
    2b66:	fc 01       	movw	r30, r24
    2b68:	20 83       	st	Z, r18
    2b6a:	80 e0       	ldi	r24, 0x00	; 0
    2b6c:	90 e0       	ldi	r25, 0x00	; 0
    2b6e:	a8 e4       	ldi	r26, 0x48	; 72
    2b70:	b2 e4       	ldi	r27, 0x42	; 66
    2b72:	8b 87       	std	Y+11, r24	; 0x0b
    2b74:	9c 87       	std	Y+12, r25	; 0x0c
    2b76:	ad 87       	std	Y+13, r26	; 0x0d

	__builtin_avr_delay_cycles(__ticks_dc);

#else
	uint16_t __ticks;
	__tmp = ((F_CPU) / 4e3) * __ms;
    2b78:	be 87       	std	Y+14, r27	; 0x0e
    2b7a:	26 e6       	ldi	r18, 0x66	; 102
    2b7c:	36 e6       	ldi	r19, 0x66	; 102
    2b7e:	46 e6       	ldi	r20, 0x66	; 102
    2b80:	55 e4       	ldi	r21, 0x45	; 69
    2b82:	6b 85       	ldd	r22, Y+11	; 0x0b
    2b84:	7c 85       	ldd	r23, Y+12	; 0x0c
    2b86:	8d 85       	ldd	r24, Y+13	; 0x0d
    2b88:	9e 85       	ldd	r25, Y+14	; 0x0e
    2b8a:	33 d3       	rcall	.+1638   	; 0x31f2 <__mulsf3>
    2b8c:	dc 01       	movw	r26, r24
    2b8e:	cb 01       	movw	r24, r22
    2b90:	8f a3       	std	Y+39, r24	; 0x27
    2b92:	98 a7       	std	Y+40, r25	; 0x28
    2b94:	a9 a7       	std	Y+41, r26	; 0x29
	if (__tmp < 1.0)
    2b96:	ba a7       	std	Y+42, r27	; 0x2a
    2b98:	20 e0       	ldi	r18, 0x00	; 0
    2b9a:	30 e0       	ldi	r19, 0x00	; 0
    2b9c:	40 e8       	ldi	r20, 0x80	; 128
    2b9e:	5f e3       	ldi	r21, 0x3F	; 63
    2ba0:	6f a1       	ldd	r22, Y+39	; 0x27
    2ba2:	78 a5       	ldd	r23, Y+40	; 0x28
    2ba4:	89 a5       	ldd	r24, Y+41	; 0x29
    2ba6:	9a a5       	ldd	r25, Y+42	; 0x2a
    2ba8:	d6 d1       	rcall	.+940    	; 0x2f56 <__cmpsf2>
    2baa:	88 23       	and	r24, r24
		__ticks = 1;
    2bac:	2c f4       	brge	.+10     	; 0x2bb8 <main+0x3f4>
    2bae:	81 e0       	ldi	r24, 0x01	; 1
    2bb0:	90 e0       	ldi	r25, 0x00	; 0
    2bb2:	9c a7       	std	Y+44, r25	; 0x2c
	else if (__tmp > 65535)
    2bb4:	8b a7       	std	Y+43, r24	; 0x2b
    2bb6:	3b c0       	rjmp	.+118    	; 0x2c2e <main+0x46a>
    2bb8:	20 e0       	ldi	r18, 0x00	; 0
    2bba:	3f ef       	ldi	r19, 0xFF	; 255
    2bbc:	4f e7       	ldi	r20, 0x7F	; 127
    2bbe:	57 e4       	ldi	r21, 0x47	; 71
    2bc0:	6f a1       	ldd	r22, Y+39	; 0x27
    2bc2:	78 a5       	ldd	r23, Y+40	; 0x28
    2bc4:	89 a5       	ldd	r24, Y+41	; 0x29
    2bc6:	9a a5       	ldd	r25, Y+42	; 0x2a
    2bc8:	10 d3       	rcall	.+1568   	; 0x31ea <__gesf2>
	{
		//	__ticks = requested delay in 1/10 ms
		__ticks = (uint16_t) (__ms * 10.0);
    2bca:	18 16       	cp	r1, r24
    2bcc:	3c f5       	brge	.+78     	; 0x2c1c <main+0x458>
    2bce:	20 e0       	ldi	r18, 0x00	; 0
    2bd0:	30 e0       	ldi	r19, 0x00	; 0
    2bd2:	40 e2       	ldi	r20, 0x20	; 32
    2bd4:	51 e4       	ldi	r21, 0x41	; 65
    2bd6:	6b 85       	ldd	r22, Y+11	; 0x0b
    2bd8:	7c 85       	ldd	r23, Y+12	; 0x0c
    2bda:	8d 85       	ldd	r24, Y+13	; 0x0d
    2bdc:	9e 85       	ldd	r25, Y+14	; 0x0e
    2bde:	09 d3       	rcall	.+1554   	; 0x31f2 <__mulsf3>
    2be0:	dc 01       	movw	r26, r24
    2be2:	cb 01       	movw	r24, r22
    2be4:	bc 01       	movw	r22, r24
    2be6:	cd 01       	movw	r24, r26
    2be8:	22 d2       	rcall	.+1092   	; 0x302e <__fixunssfsi>
    2bea:	dc 01       	movw	r26, r24
    2bec:	cb 01       	movw	r24, r22
    2bee:	9c a7       	std	Y+44, r25	; 0x2c
    2bf0:	8b a7       	std	Y+43, r24	; 0x2b
    2bf2:	0f c0       	rjmp	.+30     	; 0x2c12 <main+0x44e>
    2bf4:	80 e7       	ldi	r24, 0x70	; 112
    2bf6:	91 e0       	ldi	r25, 0x01	; 1
    2bf8:	9e a7       	std	Y+46, r25	; 0x2e
    2bfa:	8d a7       	std	Y+45, r24	; 0x2d
    2bfc:	8d a5       	ldd	r24, Y+45	; 0x2d
    2bfe:	9e a5       	ldd	r25, Y+46	; 0x2e
    2c00:	01 97       	sbiw	r24, 0x01	; 1
    2c02:	f1 f7       	brne	.-4      	; 0x2c00 <main+0x43c>
    2c04:	9e a7       	std	Y+46, r25	; 0x2e
		while(__ticks)
		{
			// wait 1/10 ms
			_delay_loop_2(((F_CPU) / 4e3) / 10);
			__ticks --;
    2c06:	8d a7       	std	Y+45, r24	; 0x2d
    2c08:	8b a5       	ldd	r24, Y+43	; 0x2b
    2c0a:	9c a5       	ldd	r25, Y+44	; 0x2c
    2c0c:	01 97       	sbiw	r24, 0x01	; 1
    2c0e:	9c a7       	std	Y+44, r25	; 0x2c
		__ticks = 1;
	else if (__tmp > 65535)
	{
		//	__ticks = requested delay in 1/10 ms
		__ticks = (uint16_t) (__ms * 10.0);
		while(__ticks)
    2c10:	8b a7       	std	Y+43, r24	; 0x2b
    2c12:	8b a5       	ldd	r24, Y+43	; 0x2b
    2c14:	9c a5       	ldd	r25, Y+44	; 0x2c
    2c16:	89 2b       	or	r24, r25
    2c18:	69 f7       	brne	.-38     	; 0x2bf4 <main+0x430>
			__ticks --;
		}
		return;
	}
	else
		__ticks = (uint16_t)__tmp;
    2c1a:	13 c0       	rjmp	.+38     	; 0x2c42 <main+0x47e>
    2c1c:	6f a1       	ldd	r22, Y+39	; 0x27
    2c1e:	78 a5       	ldd	r23, Y+40	; 0x28
    2c20:	89 a5       	ldd	r24, Y+41	; 0x29
    2c22:	9a a5       	ldd	r25, Y+42	; 0x2a
    2c24:	04 d2       	rcall	.+1032   	; 0x302e <__fixunssfsi>
    2c26:	dc 01       	movw	r26, r24
    2c28:	cb 01       	movw	r24, r22
    2c2a:	9c a7       	std	Y+44, r25	; 0x2c
    2c2c:	8b a7       	std	Y+43, r24	; 0x2b
    2c2e:	8b a5       	ldd	r24, Y+43	; 0x2b
    2c30:	9c a5       	ldd	r25, Y+44	; 0x2c
    2c32:	98 ab       	std	Y+48, r25	; 0x30
    2c34:	8f a7       	std	Y+47, r24	; 0x2f
    2c36:	8f a5       	ldd	r24, Y+47	; 0x2f
    2c38:	98 a9       	ldd	r25, Y+48	; 0x30
    2c3a:	01 97       	sbiw	r24, 0x01	; 1
    2c3c:	f1 f7       	brne	.-4      	; 0x2c3a <main+0x476>
    2c3e:	98 ab       	std	Y+48, r25	; 0x30
    2c40:	8f a7       	std	Y+47, r24	; 0x2f
					_delay_ms(50);
					PORTC = PORTC & 0xf7;	
    2c42:	88 e2       	ldi	r24, 0x28	; 40
    2c44:	90 e0       	ldi	r25, 0x00	; 0
    2c46:	28 e2       	ldi	r18, 0x28	; 40
    2c48:	30 e0       	ldi	r19, 0x00	; 0
    2c4a:	f9 01       	movw	r30, r18
    2c4c:	20 81       	ld	r18, Z
    2c4e:	27 7f       	andi	r18, 0xF7	; 247
    2c50:	fc 01       	movw	r30, r24
    2c52:	20 83       	st	Z, r18
    2c54:	80 e0       	ldi	r24, 0x00	; 0
    2c56:	90 e0       	ldi	r25, 0x00	; 0
    2c58:	a8 ec       	ldi	r26, 0xC8	; 200
    2c5a:	b2 e4       	ldi	r27, 0x42	; 66
    2c5c:	8f 83       	std	Y+7, r24	; 0x07
    2c5e:	98 87       	std	Y+8, r25	; 0x08
    2c60:	a9 87       	std	Y+9, r26	; 0x09

	__builtin_avr_delay_cycles(__ticks_dc);

#else
	uint16_t __ticks;
	__tmp = ((F_CPU) / 4e3) * __ms;
    2c62:	ba 87       	std	Y+10, r27	; 0x0a
    2c64:	26 e6       	ldi	r18, 0x66	; 102
    2c66:	36 e6       	ldi	r19, 0x66	; 102
    2c68:	46 e6       	ldi	r20, 0x66	; 102
    2c6a:	55 e4       	ldi	r21, 0x45	; 69
    2c6c:	6f 81       	ldd	r22, Y+7	; 0x07
    2c6e:	78 85       	ldd	r23, Y+8	; 0x08
    2c70:	89 85       	ldd	r24, Y+9	; 0x09
    2c72:	9a 85       	ldd	r25, Y+10	; 0x0a
    2c74:	be d2       	rcall	.+1404   	; 0x31f2 <__mulsf3>
    2c76:	dc 01       	movw	r26, r24
    2c78:	cb 01       	movw	r24, r22
    2c7a:	8d 8f       	std	Y+29, r24	; 0x1d
    2c7c:	9e 8f       	std	Y+30, r25	; 0x1e
    2c7e:	af 8f       	std	Y+31, r26	; 0x1f
	if (__tmp < 1.0)
    2c80:	b8 a3       	std	Y+32, r27	; 0x20
    2c82:	20 e0       	ldi	r18, 0x00	; 0
    2c84:	30 e0       	ldi	r19, 0x00	; 0
    2c86:	40 e8       	ldi	r20, 0x80	; 128
    2c88:	5f e3       	ldi	r21, 0x3F	; 63
    2c8a:	6d 8d       	ldd	r22, Y+29	; 0x1d
    2c8c:	7e 8d       	ldd	r23, Y+30	; 0x1e
    2c8e:	8f 8d       	ldd	r24, Y+31	; 0x1f
    2c90:	98 a1       	ldd	r25, Y+32	; 0x20
    2c92:	61 d1       	rcall	.+706    	; 0x2f56 <__cmpsf2>
    2c94:	88 23       	and	r24, r24
		__ticks = 1;
    2c96:	2c f4       	brge	.+10     	; 0x2ca2 <main+0x4de>
    2c98:	81 e0       	ldi	r24, 0x01	; 1
    2c9a:	90 e0       	ldi	r25, 0x00	; 0
    2c9c:	9a a3       	std	Y+34, r25	; 0x22
	else if (__tmp > 65535)
    2c9e:	89 a3       	std	Y+33, r24	; 0x21
    2ca0:	3b c0       	rjmp	.+118    	; 0x2d18 <main+0x554>
    2ca2:	20 e0       	ldi	r18, 0x00	; 0
    2ca4:	3f ef       	ldi	r19, 0xFF	; 255
    2ca6:	4f e7       	ldi	r20, 0x7F	; 127
    2ca8:	57 e4       	ldi	r21, 0x47	; 71
    2caa:	6d 8d       	ldd	r22, Y+29	; 0x1d
    2cac:	7e 8d       	ldd	r23, Y+30	; 0x1e
    2cae:	8f 8d       	ldd	r24, Y+31	; 0x1f
    2cb0:	98 a1       	ldd	r25, Y+32	; 0x20
    2cb2:	9b d2       	rcall	.+1334   	; 0x31ea <__gesf2>
    2cb4:	18 16       	cp	r1, r24
	{
		//	__ticks = requested delay in 1/10 ms
		__ticks = (uint16_t) (__ms * 10.0);
    2cb6:	3c f5       	brge	.+78     	; 0x2d06 <main+0x542>
    2cb8:	20 e0       	ldi	r18, 0x00	; 0
    2cba:	30 e0       	ldi	r19, 0x00	; 0
    2cbc:	40 e2       	ldi	r20, 0x20	; 32
    2cbe:	51 e4       	ldi	r21, 0x41	; 65
    2cc0:	6f 81       	ldd	r22, Y+7	; 0x07
    2cc2:	78 85       	ldd	r23, Y+8	; 0x08
    2cc4:	89 85       	ldd	r24, Y+9	; 0x09
    2cc6:	9a 85       	ldd	r25, Y+10	; 0x0a
    2cc8:	94 d2       	rcall	.+1320   	; 0x31f2 <__mulsf3>
    2cca:	dc 01       	movw	r26, r24
    2ccc:	cb 01       	movw	r24, r22
    2cce:	bc 01       	movw	r22, r24
    2cd0:	cd 01       	movw	r24, r26
    2cd2:	ad d1       	rcall	.+858    	; 0x302e <__fixunssfsi>
    2cd4:	dc 01       	movw	r26, r24
    2cd6:	cb 01       	movw	r24, r22
    2cd8:	9a a3       	std	Y+34, r25	; 0x22
    2cda:	89 a3       	std	Y+33, r24	; 0x21
    2cdc:	0f c0       	rjmp	.+30     	; 0x2cfc <main+0x538>
    2cde:	80 e7       	ldi	r24, 0x70	; 112
    2ce0:	91 e0       	ldi	r25, 0x01	; 1
    2ce2:	9c a3       	std	Y+36, r25	; 0x24
    2ce4:	8b a3       	std	Y+35, r24	; 0x23
    2ce6:	8b a1       	ldd	r24, Y+35	; 0x23
    2ce8:	9c a1       	ldd	r25, Y+36	; 0x24
    2cea:	01 97       	sbiw	r24, 0x01	; 1
    2cec:	f1 f7       	brne	.-4      	; 0x2cea <main+0x526>
    2cee:	9c a3       	std	Y+36, r25	; 0x24
    2cf0:	8b a3       	std	Y+35, r24	; 0x23
		while(__ticks)
		{
			// wait 1/10 ms
			_delay_loop_2(((F_CPU) / 4e3) / 10);
			__ticks --;
    2cf2:	89 a1       	ldd	r24, Y+33	; 0x21
    2cf4:	9a a1       	ldd	r25, Y+34	; 0x22
    2cf6:	01 97       	sbiw	r24, 0x01	; 1
    2cf8:	9a a3       	std	Y+34, r25	; 0x22
    2cfa:	89 a3       	std	Y+33, r24	; 0x21
		__ticks = 1;
	else if (__tmp > 65535)
	{
		//	__ticks = requested delay in 1/10 ms
		__ticks = (uint16_t) (__ms * 10.0);
		while(__ticks)
    2cfc:	89 a1       	ldd	r24, Y+33	; 0x21
    2cfe:	9a a1       	ldd	r25, Y+34	; 0x22
    2d00:	89 2b       	or	r24, r25
    2d02:	69 f7       	brne	.-38     	; 0x2cde <main+0x51a>
    2d04:	13 c0       	rjmp	.+38     	; 0x2d2c <main+0x568>
			__ticks --;
		}
		return;
	}
	else
		__ticks = (uint16_t)__tmp;
    2d06:	6d 8d       	ldd	r22, Y+29	; 0x1d
    2d08:	7e 8d       	ldd	r23, Y+30	; 0x1e
    2d0a:	8f 8d       	ldd	r24, Y+31	; 0x1f
    2d0c:	98 a1       	ldd	r25, Y+32	; 0x20
    2d0e:	8f d1       	rcall	.+798    	; 0x302e <__fixunssfsi>
    2d10:	dc 01       	movw	r26, r24
    2d12:	cb 01       	movw	r24, r22
    2d14:	9a a3       	std	Y+34, r25	; 0x22
    2d16:	89 a3       	std	Y+33, r24	; 0x21
    2d18:	89 a1       	ldd	r24, Y+33	; 0x21
    2d1a:	9a a1       	ldd	r25, Y+34	; 0x22
    2d1c:	9e a3       	std	Y+38, r25	; 0x26
    2d1e:	8d a3       	std	Y+37, r24	; 0x25
    2d20:	8d a1       	ldd	r24, Y+37	; 0x25
    2d22:	9e a1       	ldd	r25, Y+38	; 0x26
    2d24:	01 97       	sbiw	r24, 0x01	; 1
    2d26:	f1 f7       	brne	.-4      	; 0x2d24 <main+0x560>
    2d28:	9e a3       	std	Y+38, r25	; 0x26
    2d2a:	8d a3       	std	Y+37, r24	; 0x25
    2d2c:	15 cf       	rjmp	.-470    	; 0x2b58 <main+0x394>
					_delay_ms(100);
				}
    2d2e:	68 e7       	ldi	r22, 0x78	; 120
			}
			else
			{
				velocity(120, 120);
    2d30:	88 e7       	ldi	r24, 0x78	; 120
    2d32:	0e 94 02 0d 	call	0x1a04	; 0x1a04 <velocity>
    2d36:	8b 81       	ldd	r24, Y+3	; 0x03
				
				next_point.x=co_ords[route[--node_count]].x;
    2d38:	81 50       	subi	r24, 0x01	; 1
    2d3a:	8b 83       	std	Y+3, r24	; 0x03
    2d3c:	8b 81       	ldd	r24, Y+3	; 0x03
    2d3e:	88 2f       	mov	r24, r24
    2d40:	90 e0       	ldi	r25, 0x00	; 0
    2d42:	9e 01       	movw	r18, r28
    2d44:	2f 5c       	subi	r18, 0xCF	; 207
    2d46:	3f 4f       	sbci	r19, 0xFF	; 255
    2d48:	82 0f       	add	r24, r18
    2d4a:	93 1f       	adc	r25, r19
    2d4c:	fc 01       	movw	r30, r24
    2d4e:	80 81       	ld	r24, Z
    2d50:	88 2f       	mov	r24, r24
    2d52:	90 e0       	ldi	r25, 0x00	; 0
    2d54:	88 0f       	add	r24, r24
    2d56:	99 1f       	adc	r25, r25
    2d58:	86 5a       	subi	r24, 0xA6	; 166
    2d5a:	9d 4f       	sbci	r25, 0xFD	; 253
    2d5c:	fc 01       	movw	r30, r24
    2d5e:	20 81       	ld	r18, Z
    2d60:	ce 01       	movw	r24, r28
    2d62:	8c 5b       	subi	r24, 0xBC	; 188
    2d64:	9f 4f       	sbci	r25, 0xFF	; 255
    2d66:	fc 01       	movw	r30, r24
    2d68:	20 83       	st	Z, r18
    2d6a:	8b 81       	ldd	r24, Y+3	; 0x03
				next_point.y=co_ords[route[node_count]].y;
    2d6c:	88 2f       	mov	r24, r24
    2d6e:	90 e0       	ldi	r25, 0x00	; 0
    2d70:	9e 01       	movw	r18, r28
    2d72:	2f 5c       	subi	r18, 0xCF	; 207
    2d74:	3f 4f       	sbci	r19, 0xFF	; 255
    2d76:	82 0f       	add	r24, r18
    2d78:	93 1f       	adc	r25, r19
    2d7a:	fc 01       	movw	r30, r24
    2d7c:	80 81       	ld	r24, Z
    2d7e:	88 2f       	mov	r24, r24
    2d80:	90 e0       	ldi	r25, 0x00	; 0
    2d82:	88 0f       	add	r24, r24
    2d84:	99 1f       	adc	r25, r25
    2d86:	85 5a       	subi	r24, 0xA5	; 165
    2d88:	9d 4f       	sbci	r25, 0xFD	; 253
    2d8a:	fc 01       	movw	r30, r24
    2d8c:	20 81       	ld	r18, Z
    2d8e:	ce 01       	movw	r24, r28
    2d90:	8c 5b       	subi	r24, 0xBC	; 188
    2d92:	9f 4f       	sbci	r25, 0xFF	; 255
    2d94:	fc 01       	movw	r30, r24
    2d96:	21 83       	std	Z+1, r18	; 0x01
    2d98:	ce 01       	movw	r24, r28
				lcd_print(2, 8, next_point.x, 2);
    2d9a:	8c 5b       	subi	r24, 0xBC	; 188
    2d9c:	9f 4f       	sbci	r25, 0xFF	; 255
    2d9e:	fc 01       	movw	r30, r24
    2da0:	80 81       	ld	r24, Z
    2da2:	88 2f       	mov	r24, r24
    2da4:	90 e0       	ldi	r25, 0x00	; 0
    2da6:	22 e0       	ldi	r18, 0x02	; 2
    2da8:	30 e0       	ldi	r19, 0x00	; 0
    2daa:	ac 01       	movw	r20, r24
    2dac:	68 e0       	ldi	r22, 0x08	; 8
    2dae:	82 e0       	ldi	r24, 0x02	; 2
    2db0:	0e 94 ed 09 	call	0x13da	; 0x13da <lcd_print>
    2db4:	ce 01       	movw	r24, r28
				lcd_print(2, 11, next_point.y, 2);
    2db6:	8c 5b       	subi	r24, 0xBC	; 188
    2db8:	9f 4f       	sbci	r25, 0xFF	; 255
    2dba:	fc 01       	movw	r30, r24
    2dbc:	81 81       	ldd	r24, Z+1	; 0x01
    2dbe:	88 2f       	mov	r24, r24
    2dc0:	90 e0       	ldi	r25, 0x00	; 0
    2dc2:	22 e0       	ldi	r18, 0x02	; 2
    2dc4:	30 e0       	ldi	r19, 0x00	; 0
    2dc6:	ac 01       	movw	r20, r24
    2dc8:	6b e0       	ldi	r22, 0x0B	; 11
    2dca:	82 e0       	ldi	r24, 0x02	; 2
    2dcc:	0e 94 ed 09 	call	0x13da	; 0x13da <lcd_print>
    2dd0:	ce 01       	movw	r24, r28
				
				if(cur_point.x == next_point.x)
    2dd2:	8e 5b       	subi	r24, 0xBE	; 190
    2dd4:	9f 4f       	sbci	r25, 0xFF	; 255
    2dd6:	fc 01       	movw	r30, r24
    2dd8:	20 81       	ld	r18, Z
    2dda:	ce 01       	movw	r24, r28
    2ddc:	8c 5b       	subi	r24, 0xBC	; 188
    2dde:	9f 4f       	sbci	r25, 0xFF	; 255
    2de0:	fc 01       	movw	r30, r24
    2de2:	80 81       	ld	r24, Z
    2de4:	28 17       	cp	r18, r24
    2de6:	d1 f4       	brne	.+52     	; 0x2e1c <main+0x658>
    2de8:	88 e2       	ldi	r24, 0x28	; 40
				{
					forward_mm(40);
    2dea:	90 e0       	ldi	r25, 0x00	; 0
    2dec:	0e 94 47 0e 	call	0x1c8e	; 0x1c8e <forward_mm>
    2df0:	ce 01       	movw	r24, r28
					if(pre_point.x<cur_point.x)
    2df2:	80 5c       	subi	r24, 0xC0	; 192
    2df4:	9f 4f       	sbci	r25, 0xFF	; 255
    2df6:	fc 01       	movw	r30, r24
    2df8:	20 81       	ld	r18, Z
    2dfa:	ce 01       	movw	r24, r28
    2dfc:	8e 5b       	subi	r24, 0xBE	; 190
    2dfe:	9f 4f       	sbci	r25, 0xFF	; 255
    2e00:	fc 01       	movw	r30, r24
    2e02:	80 81       	ld	r24, Z
    2e04:	28 17       	cp	r18, r24
    2e06:	28 f4       	brcc	.+10     	; 0x2e12 <main+0x64e>
    2e08:	81 e4       	ldi	r24, 0x41	; 65
						left_degrees(65);
    2e0a:	90 e0       	ldi	r25, 0x00	; 0
    2e0c:	0e 94 59 0e 	call	0x1cb2	; 0x1cb2 <left_degrees>
    2e10:	66 c0       	rjmp	.+204    	; 0x2ede <main+0x71a>
    2e12:	81 e4       	ldi	r24, 0x41	; 65
					else
						right_degrees(65);
    2e14:	90 e0       	ldi	r25, 0x00	; 0
    2e16:	0e 94 6b 0e 	call	0x1cd6	; 0x1cd6 <right_degrees>
    2e1a:	61 c0       	rjmp	.+194    	; 0x2ede <main+0x71a>
    2e1c:	ce 01       	movw	r24, r28
				}
				else if(cur_point.x<next_point.x)
    2e1e:	8e 5b       	subi	r24, 0xBE	; 190
    2e20:	9f 4f       	sbci	r25, 0xFF	; 255
    2e22:	fc 01       	movw	r30, r24
    2e24:	20 81       	ld	r18, Z
    2e26:	ce 01       	movw	r24, r28
    2e28:	8c 5b       	subi	r24, 0xBC	; 188
    2e2a:	9f 4f       	sbci	r25, 0xFF	; 255
    2e2c:	fc 01       	movw	r30, r24
    2e2e:	80 81       	ld	r24, Z
    2e30:	28 17       	cp	r18, r24
    2e32:	58 f5       	brcc	.+86     	; 0x2e8a <main+0x6c6>
    2e34:	88 e2       	ldi	r24, 0x28	; 40
				{
					forward_mm(40);
    2e36:	90 e0       	ldi	r25, 0x00	; 0
    2e38:	0e 94 47 0e 	call	0x1c8e	; 0x1c8e <forward_mm>
    2e3c:	ce 01       	movw	r24, r28
					if(cur_point.y<next_point.y)
    2e3e:	8e 5b       	subi	r24, 0xBE	; 190
    2e40:	9f 4f       	sbci	r25, 0xFF	; 255
    2e42:	fc 01       	movw	r30, r24
    2e44:	21 81       	ldd	r18, Z+1	; 0x01
    2e46:	ce 01       	movw	r24, r28
    2e48:	8c 5b       	subi	r24, 0xBC	; 188
    2e4a:	9f 4f       	sbci	r25, 0xFF	; 255
    2e4c:	fc 01       	movw	r30, r24
    2e4e:	81 81       	ldd	r24, Z+1	; 0x01
    2e50:	28 17       	cp	r18, r24
    2e52:	b0 f4       	brcc	.+44     	; 0x2e80 <main+0x6bc>
    2e54:	ce 01       	movw	r24, r28
					{
						if(pre_point.y<=cur_point.y)
    2e56:	80 5c       	subi	r24, 0xC0	; 192
    2e58:	9f 4f       	sbci	r25, 0xFF	; 255
    2e5a:	fc 01       	movw	r30, r24
    2e5c:	21 81       	ldd	r18, Z+1	; 0x01
    2e5e:	ce 01       	movw	r24, r28
    2e60:	8e 5b       	subi	r24, 0xBE	; 190
    2e62:	9f 4f       	sbci	r25, 0xFF	; 255
    2e64:	fc 01       	movw	r30, r24
    2e66:	81 81       	ldd	r24, Z+1	; 0x01
    2e68:	82 17       	cp	r24, r18
    2e6a:	28 f0       	brcs	.+10     	; 0x2e76 <main+0x6b2>
    2e6c:	81 e4       	ldi	r24, 0x41	; 65
							right_degrees(65);
    2e6e:	90 e0       	ldi	r25, 0x00	; 0
    2e70:	0e 94 6b 0e 	call	0x1cd6	; 0x1cd6 <right_degrees>
    2e74:	34 c0       	rjmp	.+104    	; 0x2ede <main+0x71a>
    2e76:	81 e4       	ldi	r24, 0x41	; 65
						else
							left_degrees(65);
    2e78:	90 e0       	ldi	r25, 0x00	; 0
    2e7a:	0e 94 59 0e 	call	0x1cb2	; 0x1cb2 <left_degrees>
    2e7e:	2f c0       	rjmp	.+94     	; 0x2ede <main+0x71a>
    2e80:	81 e4       	ldi	r24, 0x41	; 65
					}
					else
						right_degrees(65);
    2e82:	90 e0       	ldi	r25, 0x00	; 0
    2e84:	0e 94 6b 0e 	call	0x1cd6	; 0x1cd6 <right_degrees>
    2e88:	2a c0       	rjmp	.+84     	; 0x2ede <main+0x71a>
    2e8a:	88 e2       	ldi	r24, 0x28	; 40
				}
				else
				{
					forward_mm(40);
    2e8c:	90 e0       	ldi	r25, 0x00	; 0
    2e8e:	0e 94 47 0e 	call	0x1c8e	; 0x1c8e <forward_mm>
    2e92:	ce 01       	movw	r24, r28
					if(cur_point.y>next_point.y)
    2e94:	8e 5b       	subi	r24, 0xBE	; 190
    2e96:	9f 4f       	sbci	r25, 0xFF	; 255
    2e98:	fc 01       	movw	r30, r24
    2e9a:	21 81       	ldd	r18, Z+1	; 0x01
    2e9c:	ce 01       	movw	r24, r28
    2e9e:	8c 5b       	subi	r24, 0xBC	; 188
    2ea0:	9f 4f       	sbci	r25, 0xFF	; 255
    2ea2:	fc 01       	movw	r30, r24
    2ea4:	81 81       	ldd	r24, Z+1	; 0x01
    2ea6:	82 17       	cp	r24, r18
    2ea8:	28 f4       	brcc	.+10     	; 0x2eb4 <main+0x6f0>
    2eaa:	81 e4       	ldi	r24, 0x41	; 65
						left_degrees(65);
    2eac:	90 e0       	ldi	r25, 0x00	; 0
    2eae:	0e 94 59 0e 	call	0x1cb2	; 0x1cb2 <left_degrees>
    2eb2:	15 c0       	rjmp	.+42     	; 0x2ede <main+0x71a>
    2eb4:	ce 01       	movw	r24, r28
					else
					{
						if(pre_point.y<=cur_point.y)
    2eb6:	80 5c       	subi	r24, 0xC0	; 192
    2eb8:	9f 4f       	sbci	r25, 0xFF	; 255
    2eba:	fc 01       	movw	r30, r24
    2ebc:	21 81       	ldd	r18, Z+1	; 0x01
    2ebe:	ce 01       	movw	r24, r28
    2ec0:	8e 5b       	subi	r24, 0xBE	; 190
    2ec2:	9f 4f       	sbci	r25, 0xFF	; 255
    2ec4:	fc 01       	movw	r30, r24
    2ec6:	81 81       	ldd	r24, Z+1	; 0x01
    2ec8:	82 17       	cp	r24, r18
    2eca:	28 f0       	brcs	.+10     	; 0x2ed6 <main+0x712>
    2ecc:	81 e4       	ldi	r24, 0x41	; 65
							left_degrees(65);
    2ece:	90 e0       	ldi	r25, 0x00	; 0
    2ed0:	0e 94 59 0e 	call	0x1cb2	; 0x1cb2 <left_degrees>
    2ed4:	04 c0       	rjmp	.+8      	; 0x2ede <main+0x71a>
    2ed6:	81 e4       	ldi	r24, 0x41	; 65
						else
							right_degrees(65);
    2ed8:	90 e0       	ldi	r25, 0x00	; 0
    2eda:	0e 94 6b 0e 	call	0x1cd6	; 0x1cd6 <right_degrees>
    2ede:	ce 01       	movw	r24, r28
					}
				}
				pre_point.x=cur_point.x;
    2ee0:	8e 5b       	subi	r24, 0xBE	; 190
    2ee2:	9f 4f       	sbci	r25, 0xFF	; 255
    2ee4:	fc 01       	movw	r30, r24
    2ee6:	20 81       	ld	r18, Z
    2ee8:	ce 01       	movw	r24, r28
    2eea:	80 5c       	subi	r24, 0xC0	; 192
    2eec:	9f 4f       	sbci	r25, 0xFF	; 255
    2eee:	fc 01       	movw	r30, r24
    2ef0:	20 83       	st	Z, r18
    2ef2:	ce 01       	movw	r24, r28
				pre_point.y=cur_point.y;
    2ef4:	8e 5b       	subi	r24, 0xBE	; 190
    2ef6:	9f 4f       	sbci	r25, 0xFF	; 255
    2ef8:	fc 01       	movw	r30, r24
    2efa:	21 81       	ldd	r18, Z+1	; 0x01
    2efc:	ce 01       	movw	r24, r28
    2efe:	80 5c       	subi	r24, 0xC0	; 192
    2f00:	9f 4f       	sbci	r25, 0xFF	; 255
    2f02:	fc 01       	movw	r30, r24
    2f04:	21 83       	std	Z+1, r18	; 0x01
    2f06:	80 91 0d 02 	lds	r24, 0x020D	; 0x80020d <Center_white_line>
			}
		}
		
		//black line following
		if(Center_white_line>Threshold && Left_white_line<Threshold && Right_white_line<Threshold)		//only center sensor on black line
    2f0a:	8f 31       	cpi	r24, 0x1F	; 31
    2f0c:	70 f0       	brcs	.+28     	; 0x2f2a <main+0x766>
    2f0e:	80 91 0c 02 	lds	r24, 0x020C	; 0x80020c <__data_end>
    2f12:	8e 31       	cpi	r24, 0x1E	; 30
    2f14:	50 f4       	brcc	.+20     	; 0x2f2a <main+0x766>
    2f16:	80 91 0e 02 	lds	r24, 0x020E	; 0x80020e <Right_white_line>
    2f1a:	8e 31       	cpi	r24, 0x1E	; 30
    2f1c:	30 f4       	brcc	.+12     	; 0x2f2a <main+0x766>
    2f1e:	0e 94 59 0d 	call	0x1ab2	; 0x1ab2 <forward>
		{
			forward();
    2f22:	64 e6       	ldi	r22, 0x64	; 100
			velocity(100, 100);			//forward full speed
    2f24:	84 e6       	ldi	r24, 0x64	; 100
    2f26:	0e 94 02 0d 	call	0x1a04	; 0x1a04 <velocity>
    2f2a:	80 91 0c 02 	lds	r24, 0x020C	; 0x80020c <__data_end>
		}
		if(Left_white_line>Threshold)		//left sensor on black line
    2f2e:	8f 31       	cpi	r24, 0x1F	; 31
    2f30:	30 f0       	brcs	.+12     	; 0x2f3e <main+0x77a>
    2f32:	0e 94 59 0d 	call	0x1ab2	; 0x1ab2 <forward>
		{
			forward();
    2f36:	62 e8       	ldi	r22, 0x82	; 130
			velocity(100, 130);				//turn left to maintain centering
    2f38:	84 e6       	ldi	r24, 0x64	; 100
    2f3a:	0e 94 02 0d 	call	0x1a04	; 0x1a04 <velocity>
    2f3e:	80 91 0e 02 	lds	r24, 0x020E	; 0x80020e <Right_white_line>
		}
		if(Right_white_line>Threshold)		//right sensor on black line
    2f42:	8f 31       	cpi	r24, 0x1F	; 31
    2f44:	08 f4       	brcc	.+2      	; 0x2f48 <main+0x784>
    2f46:	e0 cc       	rjmp	.-1600   	; 0x2908 <main+0x144>
    2f48:	0e 94 59 0d 	call	0x1ab2	; 0x1ab2 <forward>
		{
			forward();
    2f4c:	64 e6       	ldi	r22, 0x64	; 100
			velocity(130, 100);				//turn right to maintain centering
    2f4e:	82 e8       	ldi	r24, 0x82	; 130
    2f50:	0e 94 02 0d 	call	0x1a04	; 0x1a04 <velocity>
    2f54:	d9 cc       	rjmp	.-1614   	; 0x2908 <main+0x144>

00002f56 <__cmpsf2>:
		}
	}
    2f56:	d4 d0       	rcall	.+424    	; 0x3100 <__fp_cmp>
    2f58:	08 f4       	brcc	.+2      	; 0x2f5c <__cmpsf2+0x6>
    2f5a:	81 e0       	ldi	r24, 0x01	; 1
    2f5c:	08 95       	ret

00002f5e <__divsf3>:
    2f5e:	0c d0       	rcall	.+24     	; 0x2f78 <__divsf3x>
    2f60:	0a c1       	rjmp	.+532    	; 0x3176 <__fp_round>
    2f62:	02 d1       	rcall	.+516    	; 0x3168 <__fp_pscB>
    2f64:	40 f0       	brcs	.+16     	; 0x2f76 <__divsf3+0x18>
    2f66:	f9 d0       	rcall	.+498    	; 0x315a <__fp_pscA>
    2f68:	30 f0       	brcs	.+12     	; 0x2f76 <__divsf3+0x18>
    2f6a:	21 f4       	brne	.+8      	; 0x2f74 <__divsf3+0x16>
    2f6c:	5f 3f       	cpi	r21, 0xFF	; 255
    2f6e:	19 f0       	breq	.+6      	; 0x2f76 <__divsf3+0x18>
    2f70:	eb c0       	rjmp	.+470    	; 0x3148 <__fp_inf>
    2f72:	51 11       	cpse	r21, r1
    2f74:	34 c1       	rjmp	.+616    	; 0x31de <__fp_szero>
    2f76:	ee c0       	rjmp	.+476    	; 0x3154 <__fp_nan>

00002f78 <__divsf3x>:
    2f78:	0f d1       	rcall	.+542    	; 0x3198 <__fp_split3>
    2f7a:	98 f3       	brcs	.-26     	; 0x2f62 <__divsf3+0x4>

00002f7c <__divsf3_pse>:
    2f7c:	99 23       	and	r25, r25
    2f7e:	c9 f3       	breq	.-14     	; 0x2f72 <__divsf3+0x14>
    2f80:	55 23       	and	r21, r21
    2f82:	b1 f3       	breq	.-20     	; 0x2f70 <__divsf3+0x12>
    2f84:	95 1b       	sub	r25, r21
    2f86:	55 0b       	sbc	r21, r21
    2f88:	bb 27       	eor	r27, r27
    2f8a:	aa 27       	eor	r26, r26
    2f8c:	62 17       	cp	r22, r18
    2f8e:	73 07       	cpc	r23, r19
    2f90:	84 07       	cpc	r24, r20
    2f92:	38 f0       	brcs	.+14     	; 0x2fa2 <__divsf3_pse+0x26>
    2f94:	9f 5f       	subi	r25, 0xFF	; 255
    2f96:	5f 4f       	sbci	r21, 0xFF	; 255
    2f98:	22 0f       	add	r18, r18
    2f9a:	33 1f       	adc	r19, r19
    2f9c:	44 1f       	adc	r20, r20
    2f9e:	aa 1f       	adc	r26, r26
    2fa0:	a9 f3       	breq	.-22     	; 0x2f8c <__divsf3_pse+0x10>
    2fa2:	33 d0       	rcall	.+102    	; 0x300a <__divsf3_pse+0x8e>
    2fa4:	0e 2e       	mov	r0, r30
    2fa6:	3a f0       	brmi	.+14     	; 0x2fb6 <__divsf3_pse+0x3a>
    2fa8:	e0 e8       	ldi	r30, 0x80	; 128
    2faa:	30 d0       	rcall	.+96     	; 0x300c <__divsf3_pse+0x90>
    2fac:	91 50       	subi	r25, 0x01	; 1
    2fae:	50 40       	sbci	r21, 0x00	; 0
    2fb0:	e6 95       	lsr	r30
    2fb2:	00 1c       	adc	r0, r0
    2fb4:	ca f7       	brpl	.-14     	; 0x2fa8 <__divsf3_pse+0x2c>
    2fb6:	29 d0       	rcall	.+82     	; 0x300a <__divsf3_pse+0x8e>
    2fb8:	fe 2f       	mov	r31, r30
    2fba:	27 d0       	rcall	.+78     	; 0x300a <__divsf3_pse+0x8e>
    2fbc:	66 0f       	add	r22, r22
    2fbe:	77 1f       	adc	r23, r23
    2fc0:	88 1f       	adc	r24, r24
    2fc2:	bb 1f       	adc	r27, r27
    2fc4:	26 17       	cp	r18, r22
    2fc6:	37 07       	cpc	r19, r23
    2fc8:	48 07       	cpc	r20, r24
    2fca:	ab 07       	cpc	r26, r27
    2fcc:	b0 e8       	ldi	r27, 0x80	; 128
    2fce:	09 f0       	breq	.+2      	; 0x2fd2 <__divsf3_pse+0x56>
    2fd0:	bb 0b       	sbc	r27, r27
    2fd2:	80 2d       	mov	r24, r0
    2fd4:	bf 01       	movw	r22, r30
    2fd6:	ff 27       	eor	r31, r31
    2fd8:	93 58       	subi	r25, 0x83	; 131
    2fda:	5f 4f       	sbci	r21, 0xFF	; 255
    2fdc:	2a f0       	brmi	.+10     	; 0x2fe8 <__divsf3_pse+0x6c>
    2fde:	9e 3f       	cpi	r25, 0xFE	; 254
    2fe0:	51 05       	cpc	r21, r1
    2fe2:	68 f0       	brcs	.+26     	; 0x2ffe <__divsf3_pse+0x82>
    2fe4:	b1 c0       	rjmp	.+354    	; 0x3148 <__fp_inf>
    2fe6:	fb c0       	rjmp	.+502    	; 0x31de <__fp_szero>
    2fe8:	5f 3f       	cpi	r21, 0xFF	; 255
    2fea:	ec f3       	brlt	.-6      	; 0x2fe6 <__divsf3_pse+0x6a>
    2fec:	98 3e       	cpi	r25, 0xE8	; 232
    2fee:	dc f3       	brlt	.-10     	; 0x2fe6 <__divsf3_pse+0x6a>
    2ff0:	86 95       	lsr	r24
    2ff2:	77 95       	ror	r23
    2ff4:	67 95       	ror	r22
    2ff6:	b7 95       	ror	r27
    2ff8:	f7 95       	ror	r31
    2ffa:	9f 5f       	subi	r25, 0xFF	; 255
    2ffc:	c9 f7       	brne	.-14     	; 0x2ff0 <__divsf3_pse+0x74>
    2ffe:	88 0f       	add	r24, r24
    3000:	91 1d       	adc	r25, r1
    3002:	96 95       	lsr	r25
    3004:	87 95       	ror	r24
    3006:	97 f9       	bld	r25, 7
    3008:	08 95       	ret
    300a:	e1 e0       	ldi	r30, 0x01	; 1
    300c:	66 0f       	add	r22, r22
    300e:	77 1f       	adc	r23, r23
    3010:	88 1f       	adc	r24, r24
    3012:	bb 1f       	adc	r27, r27
    3014:	62 17       	cp	r22, r18
    3016:	73 07       	cpc	r23, r19
    3018:	84 07       	cpc	r24, r20
    301a:	ba 07       	cpc	r27, r26
    301c:	20 f0       	brcs	.+8      	; 0x3026 <__divsf3_pse+0xaa>
    301e:	62 1b       	sub	r22, r18
    3020:	73 0b       	sbc	r23, r19
    3022:	84 0b       	sbc	r24, r20
    3024:	ba 0b       	sbc	r27, r26
    3026:	ee 1f       	adc	r30, r30
    3028:	88 f7       	brcc	.-30     	; 0x300c <__divsf3_pse+0x90>
    302a:	e0 95       	com	r30
    302c:	08 95       	ret

0000302e <__fixunssfsi>:
    302e:	bc d0       	rcall	.+376    	; 0x31a8 <__fp_splitA>
    3030:	88 f0       	brcs	.+34     	; 0x3054 <__fixunssfsi+0x26>
    3032:	9f 57       	subi	r25, 0x7F	; 127
    3034:	90 f0       	brcs	.+36     	; 0x305a <__fixunssfsi+0x2c>
    3036:	b9 2f       	mov	r27, r25
    3038:	99 27       	eor	r25, r25
    303a:	b7 51       	subi	r27, 0x17	; 23
    303c:	a0 f0       	brcs	.+40     	; 0x3066 <__fixunssfsi+0x38>
    303e:	d1 f0       	breq	.+52     	; 0x3074 <__fixunssfsi+0x46>
    3040:	66 0f       	add	r22, r22
    3042:	77 1f       	adc	r23, r23
    3044:	88 1f       	adc	r24, r24
    3046:	99 1f       	adc	r25, r25
    3048:	1a f0       	brmi	.+6      	; 0x3050 <__fixunssfsi+0x22>
    304a:	ba 95       	dec	r27
    304c:	c9 f7       	brne	.-14     	; 0x3040 <__fixunssfsi+0x12>
    304e:	12 c0       	rjmp	.+36     	; 0x3074 <__fixunssfsi+0x46>
    3050:	b1 30       	cpi	r27, 0x01	; 1
    3052:	81 f0       	breq	.+32     	; 0x3074 <__fixunssfsi+0x46>
    3054:	c3 d0       	rcall	.+390    	; 0x31dc <__fp_zero>
    3056:	b1 e0       	ldi	r27, 0x01	; 1
    3058:	08 95       	ret
    305a:	c0 c0       	rjmp	.+384    	; 0x31dc <__fp_zero>
    305c:	67 2f       	mov	r22, r23
    305e:	78 2f       	mov	r23, r24
    3060:	88 27       	eor	r24, r24
    3062:	b8 5f       	subi	r27, 0xF8	; 248
    3064:	39 f0       	breq	.+14     	; 0x3074 <__fixunssfsi+0x46>
    3066:	b9 3f       	cpi	r27, 0xF9	; 249
    3068:	cc f3       	brlt	.-14     	; 0x305c <__fixunssfsi+0x2e>
    306a:	86 95       	lsr	r24
    306c:	77 95       	ror	r23
    306e:	67 95       	ror	r22
    3070:	b3 95       	inc	r27
    3072:	d9 f7       	brne	.-10     	; 0x306a <__fixunssfsi+0x3c>
    3074:	3e f4       	brtc	.+14     	; 0x3084 <__fixunssfsi+0x56>
    3076:	90 95       	com	r25
    3078:	80 95       	com	r24
    307a:	70 95       	com	r23
    307c:	61 95       	neg	r22
    307e:	7f 4f       	sbci	r23, 0xFF	; 255
    3080:	8f 4f       	sbci	r24, 0xFF	; 255
    3082:	9f 4f       	sbci	r25, 0xFF	; 255
    3084:	08 95       	ret

00003086 <__floatunsisf>:
    3086:	e8 94       	clt
    3088:	09 c0       	rjmp	.+18     	; 0x309c <__floatsisf+0x12>

0000308a <__floatsisf>:
    308a:	97 fb       	bst	r25, 7
    308c:	3e f4       	brtc	.+14     	; 0x309c <__floatsisf+0x12>
    308e:	90 95       	com	r25
    3090:	80 95       	com	r24
    3092:	70 95       	com	r23
    3094:	61 95       	neg	r22
    3096:	7f 4f       	sbci	r23, 0xFF	; 255
    3098:	8f 4f       	sbci	r24, 0xFF	; 255
    309a:	9f 4f       	sbci	r25, 0xFF	; 255
    309c:	99 23       	and	r25, r25
    309e:	a9 f0       	breq	.+42     	; 0x30ca <__floatsisf+0x40>
    30a0:	f9 2f       	mov	r31, r25
    30a2:	96 e9       	ldi	r25, 0x96	; 150
    30a4:	bb 27       	eor	r27, r27
    30a6:	93 95       	inc	r25
    30a8:	f6 95       	lsr	r31
    30aa:	87 95       	ror	r24
    30ac:	77 95       	ror	r23
    30ae:	67 95       	ror	r22
    30b0:	b7 95       	ror	r27
    30b2:	f1 11       	cpse	r31, r1
    30b4:	f8 cf       	rjmp	.-16     	; 0x30a6 <__floatsisf+0x1c>
    30b6:	fa f4       	brpl	.+62     	; 0x30f6 <__floatsisf+0x6c>
    30b8:	bb 0f       	add	r27, r27
    30ba:	11 f4       	brne	.+4      	; 0x30c0 <__floatsisf+0x36>
    30bc:	60 ff       	sbrs	r22, 0
    30be:	1b c0       	rjmp	.+54     	; 0x30f6 <__floatsisf+0x6c>
    30c0:	6f 5f       	subi	r22, 0xFF	; 255
    30c2:	7f 4f       	sbci	r23, 0xFF	; 255
    30c4:	8f 4f       	sbci	r24, 0xFF	; 255
    30c6:	9f 4f       	sbci	r25, 0xFF	; 255
    30c8:	16 c0       	rjmp	.+44     	; 0x30f6 <__floatsisf+0x6c>
    30ca:	88 23       	and	r24, r24
    30cc:	11 f0       	breq	.+4      	; 0x30d2 <__floatsisf+0x48>
    30ce:	96 e9       	ldi	r25, 0x96	; 150
    30d0:	11 c0       	rjmp	.+34     	; 0x30f4 <__floatsisf+0x6a>
    30d2:	77 23       	and	r23, r23
    30d4:	21 f0       	breq	.+8      	; 0x30de <__floatsisf+0x54>
    30d6:	9e e8       	ldi	r25, 0x8E	; 142
    30d8:	87 2f       	mov	r24, r23
    30da:	76 2f       	mov	r23, r22
    30dc:	05 c0       	rjmp	.+10     	; 0x30e8 <__floatsisf+0x5e>
    30de:	66 23       	and	r22, r22
    30e0:	71 f0       	breq	.+28     	; 0x30fe <__floatsisf+0x74>
    30e2:	96 e8       	ldi	r25, 0x86	; 134
    30e4:	86 2f       	mov	r24, r22
    30e6:	70 e0       	ldi	r23, 0x00	; 0
    30e8:	60 e0       	ldi	r22, 0x00	; 0
    30ea:	2a f0       	brmi	.+10     	; 0x30f6 <__floatsisf+0x6c>
    30ec:	9a 95       	dec	r25
    30ee:	66 0f       	add	r22, r22
    30f0:	77 1f       	adc	r23, r23
    30f2:	88 1f       	adc	r24, r24
    30f4:	da f7       	brpl	.-10     	; 0x30ec <__floatsisf+0x62>
    30f6:	88 0f       	add	r24, r24
    30f8:	96 95       	lsr	r25
    30fa:	87 95       	ror	r24
    30fc:	97 f9       	bld	r25, 7
    30fe:	08 95       	ret

00003100 <__fp_cmp>:
    3100:	99 0f       	add	r25, r25
    3102:	00 08       	sbc	r0, r0
    3104:	55 0f       	add	r21, r21
    3106:	aa 0b       	sbc	r26, r26
    3108:	e0 e8       	ldi	r30, 0x80	; 128
    310a:	fe ef       	ldi	r31, 0xFE	; 254
    310c:	16 16       	cp	r1, r22
    310e:	17 06       	cpc	r1, r23
    3110:	e8 07       	cpc	r30, r24
    3112:	f9 07       	cpc	r31, r25
    3114:	c0 f0       	brcs	.+48     	; 0x3146 <__fp_cmp+0x46>
    3116:	12 16       	cp	r1, r18
    3118:	13 06       	cpc	r1, r19
    311a:	e4 07       	cpc	r30, r20
    311c:	f5 07       	cpc	r31, r21
    311e:	98 f0       	brcs	.+38     	; 0x3146 <__fp_cmp+0x46>
    3120:	62 1b       	sub	r22, r18
    3122:	73 0b       	sbc	r23, r19
    3124:	84 0b       	sbc	r24, r20
    3126:	95 0b       	sbc	r25, r21
    3128:	39 f4       	brne	.+14     	; 0x3138 <__fp_cmp+0x38>
    312a:	0a 26       	eor	r0, r26
    312c:	61 f0       	breq	.+24     	; 0x3146 <__fp_cmp+0x46>
    312e:	23 2b       	or	r18, r19
    3130:	24 2b       	or	r18, r20
    3132:	25 2b       	or	r18, r21
    3134:	21 f4       	brne	.+8      	; 0x313e <__fp_cmp+0x3e>
    3136:	08 95       	ret
    3138:	0a 26       	eor	r0, r26
    313a:	09 f4       	brne	.+2      	; 0x313e <__fp_cmp+0x3e>
    313c:	a1 40       	sbci	r26, 0x01	; 1
    313e:	a6 95       	lsr	r26
    3140:	8f ef       	ldi	r24, 0xFF	; 255
    3142:	81 1d       	adc	r24, r1
    3144:	81 1d       	adc	r24, r1
    3146:	08 95       	ret

00003148 <__fp_inf>:
    3148:	97 f9       	bld	r25, 7
    314a:	9f 67       	ori	r25, 0x7F	; 127
    314c:	80 e8       	ldi	r24, 0x80	; 128
    314e:	70 e0       	ldi	r23, 0x00	; 0
    3150:	60 e0       	ldi	r22, 0x00	; 0
    3152:	08 95       	ret

00003154 <__fp_nan>:
    3154:	9f ef       	ldi	r25, 0xFF	; 255
    3156:	80 ec       	ldi	r24, 0xC0	; 192
    3158:	08 95       	ret

0000315a <__fp_pscA>:
    315a:	00 24       	eor	r0, r0
    315c:	0a 94       	dec	r0
    315e:	16 16       	cp	r1, r22
    3160:	17 06       	cpc	r1, r23
    3162:	18 06       	cpc	r1, r24
    3164:	09 06       	cpc	r0, r25
    3166:	08 95       	ret

00003168 <__fp_pscB>:
    3168:	00 24       	eor	r0, r0
    316a:	0a 94       	dec	r0
    316c:	12 16       	cp	r1, r18
    316e:	13 06       	cpc	r1, r19
    3170:	14 06       	cpc	r1, r20
    3172:	05 06       	cpc	r0, r21
    3174:	08 95       	ret

00003176 <__fp_round>:
    3176:	09 2e       	mov	r0, r25
    3178:	03 94       	inc	r0
    317a:	00 0c       	add	r0, r0
    317c:	11 f4       	brne	.+4      	; 0x3182 <__fp_round+0xc>
    317e:	88 23       	and	r24, r24
    3180:	52 f0       	brmi	.+20     	; 0x3196 <__fp_round+0x20>
    3182:	bb 0f       	add	r27, r27
    3184:	40 f4       	brcc	.+16     	; 0x3196 <__fp_round+0x20>
    3186:	bf 2b       	or	r27, r31
    3188:	11 f4       	brne	.+4      	; 0x318e <__fp_round+0x18>
    318a:	60 ff       	sbrs	r22, 0
    318c:	04 c0       	rjmp	.+8      	; 0x3196 <__fp_round+0x20>
    318e:	6f 5f       	subi	r22, 0xFF	; 255
    3190:	7f 4f       	sbci	r23, 0xFF	; 255
    3192:	8f 4f       	sbci	r24, 0xFF	; 255
    3194:	9f 4f       	sbci	r25, 0xFF	; 255
    3196:	08 95       	ret

00003198 <__fp_split3>:
    3198:	57 fd       	sbrc	r21, 7
    319a:	90 58       	subi	r25, 0x80	; 128
    319c:	44 0f       	add	r20, r20
    319e:	55 1f       	adc	r21, r21
    31a0:	59 f0       	breq	.+22     	; 0x31b8 <__fp_splitA+0x10>
    31a2:	5f 3f       	cpi	r21, 0xFF	; 255
    31a4:	71 f0       	breq	.+28     	; 0x31c2 <__fp_splitA+0x1a>
    31a6:	47 95       	ror	r20

000031a8 <__fp_splitA>:
    31a8:	88 0f       	add	r24, r24
    31aa:	97 fb       	bst	r25, 7
    31ac:	99 1f       	adc	r25, r25
    31ae:	61 f0       	breq	.+24     	; 0x31c8 <__fp_splitA+0x20>
    31b0:	9f 3f       	cpi	r25, 0xFF	; 255
    31b2:	79 f0       	breq	.+30     	; 0x31d2 <__fp_splitA+0x2a>
    31b4:	87 95       	ror	r24
    31b6:	08 95       	ret
    31b8:	12 16       	cp	r1, r18
    31ba:	13 06       	cpc	r1, r19
    31bc:	14 06       	cpc	r1, r20
    31be:	55 1f       	adc	r21, r21
    31c0:	f2 cf       	rjmp	.-28     	; 0x31a6 <__fp_split3+0xe>
    31c2:	46 95       	lsr	r20
    31c4:	f1 df       	rcall	.-30     	; 0x31a8 <__fp_splitA>
    31c6:	08 c0       	rjmp	.+16     	; 0x31d8 <__fp_splitA+0x30>
    31c8:	16 16       	cp	r1, r22
    31ca:	17 06       	cpc	r1, r23
    31cc:	18 06       	cpc	r1, r24
    31ce:	99 1f       	adc	r25, r25
    31d0:	f1 cf       	rjmp	.-30     	; 0x31b4 <__fp_splitA+0xc>
    31d2:	86 95       	lsr	r24
    31d4:	71 05       	cpc	r23, r1
    31d6:	61 05       	cpc	r22, r1
    31d8:	08 94       	sec
    31da:	08 95       	ret

000031dc <__fp_zero>:
    31dc:	e8 94       	clt

000031de <__fp_szero>:
    31de:	bb 27       	eor	r27, r27
    31e0:	66 27       	eor	r22, r22
    31e2:	77 27       	eor	r23, r23
    31e4:	cb 01       	movw	r24, r22
    31e6:	97 f9       	bld	r25, 7
    31e8:	08 95       	ret

000031ea <__gesf2>:
    31ea:	8a df       	rcall	.-236    	; 0x3100 <__fp_cmp>
    31ec:	08 f4       	brcc	.+2      	; 0x31f0 <__gesf2+0x6>
    31ee:	8f ef       	ldi	r24, 0xFF	; 255
    31f0:	08 95       	ret

000031f2 <__mulsf3>:
    31f2:	0b d0       	rcall	.+22     	; 0x320a <__mulsf3x>
    31f4:	c0 cf       	rjmp	.-128    	; 0x3176 <__fp_round>
    31f6:	b1 df       	rcall	.-158    	; 0x315a <__fp_pscA>
    31f8:	28 f0       	brcs	.+10     	; 0x3204 <__mulsf3+0x12>
    31fa:	b6 df       	rcall	.-148    	; 0x3168 <__fp_pscB>
    31fc:	18 f0       	brcs	.+6      	; 0x3204 <__mulsf3+0x12>
    31fe:	95 23       	and	r25, r21
    3200:	09 f0       	breq	.+2      	; 0x3204 <__mulsf3+0x12>
    3202:	a2 cf       	rjmp	.-188    	; 0x3148 <__fp_inf>
    3204:	a7 cf       	rjmp	.-178    	; 0x3154 <__fp_nan>
    3206:	11 24       	eor	r1, r1
    3208:	ea cf       	rjmp	.-44     	; 0x31de <__fp_szero>

0000320a <__mulsf3x>:
    320a:	c6 df       	rcall	.-116    	; 0x3198 <__fp_split3>
    320c:	a0 f3       	brcs	.-24     	; 0x31f6 <__mulsf3+0x4>

0000320e <__mulsf3_pse>:
    320e:	95 9f       	mul	r25, r21
    3210:	d1 f3       	breq	.-12     	; 0x3206 <__mulsf3+0x14>
    3212:	95 0f       	add	r25, r21
    3214:	50 e0       	ldi	r21, 0x00	; 0
    3216:	55 1f       	adc	r21, r21
    3218:	62 9f       	mul	r22, r18
    321a:	f0 01       	movw	r30, r0
    321c:	72 9f       	mul	r23, r18
    321e:	bb 27       	eor	r27, r27
    3220:	f0 0d       	add	r31, r0
    3222:	b1 1d       	adc	r27, r1
    3224:	63 9f       	mul	r22, r19
    3226:	aa 27       	eor	r26, r26
    3228:	f0 0d       	add	r31, r0
    322a:	b1 1d       	adc	r27, r1
    322c:	aa 1f       	adc	r26, r26
    322e:	64 9f       	mul	r22, r20
    3230:	66 27       	eor	r22, r22
    3232:	b0 0d       	add	r27, r0
    3234:	a1 1d       	adc	r26, r1
    3236:	66 1f       	adc	r22, r22
    3238:	82 9f       	mul	r24, r18
    323a:	22 27       	eor	r18, r18
    323c:	b0 0d       	add	r27, r0
    323e:	a1 1d       	adc	r26, r1
    3240:	62 1f       	adc	r22, r18
    3242:	73 9f       	mul	r23, r19
    3244:	b0 0d       	add	r27, r0
    3246:	a1 1d       	adc	r26, r1
    3248:	62 1f       	adc	r22, r18
    324a:	83 9f       	mul	r24, r19
    324c:	a0 0d       	add	r26, r0
    324e:	61 1d       	adc	r22, r1
    3250:	22 1f       	adc	r18, r18
    3252:	74 9f       	mul	r23, r20
    3254:	33 27       	eor	r19, r19
    3256:	a0 0d       	add	r26, r0
    3258:	61 1d       	adc	r22, r1
    325a:	23 1f       	adc	r18, r19
    325c:	84 9f       	mul	r24, r20
    325e:	60 0d       	add	r22, r0
    3260:	21 1d       	adc	r18, r1
    3262:	82 2f       	mov	r24, r18
    3264:	76 2f       	mov	r23, r22
    3266:	6a 2f       	mov	r22, r26
    3268:	11 24       	eor	r1, r1
    326a:	9f 57       	subi	r25, 0x7F	; 127
    326c:	50 40       	sbci	r21, 0x00	; 0
    326e:	8a f0       	brmi	.+34     	; 0x3292 <__mulsf3_pse+0x84>
    3270:	e1 f0       	breq	.+56     	; 0x32aa <__mulsf3_pse+0x9c>
    3272:	88 23       	and	r24, r24
    3274:	4a f0       	brmi	.+18     	; 0x3288 <__mulsf3_pse+0x7a>
    3276:	ee 0f       	add	r30, r30
    3278:	ff 1f       	adc	r31, r31
    327a:	bb 1f       	adc	r27, r27
    327c:	66 1f       	adc	r22, r22
    327e:	77 1f       	adc	r23, r23
    3280:	88 1f       	adc	r24, r24
    3282:	91 50       	subi	r25, 0x01	; 1
    3284:	50 40       	sbci	r21, 0x00	; 0
    3286:	a9 f7       	brne	.-22     	; 0x3272 <__mulsf3_pse+0x64>
    3288:	9e 3f       	cpi	r25, 0xFE	; 254
    328a:	51 05       	cpc	r21, r1
    328c:	70 f0       	brcs	.+28     	; 0x32aa <__mulsf3_pse+0x9c>
    328e:	5c cf       	rjmp	.-328    	; 0x3148 <__fp_inf>
    3290:	a6 cf       	rjmp	.-180    	; 0x31de <__fp_szero>
    3292:	5f 3f       	cpi	r21, 0xFF	; 255
    3294:	ec f3       	brlt	.-6      	; 0x3290 <__mulsf3_pse+0x82>
    3296:	98 3e       	cpi	r25, 0xE8	; 232
    3298:	dc f3       	brlt	.-10     	; 0x3290 <__mulsf3_pse+0x82>
    329a:	86 95       	lsr	r24
    329c:	77 95       	ror	r23
    329e:	67 95       	ror	r22
    32a0:	b7 95       	ror	r27
    32a2:	f7 95       	ror	r31
    32a4:	e7 95       	ror	r30
    32a6:	9f 5f       	subi	r25, 0xFF	; 255
    32a8:	c1 f7       	brne	.-16     	; 0x329a <__mulsf3_pse+0x8c>
    32aa:	fe 2b       	or	r31, r30
    32ac:	88 0f       	add	r24, r24
    32ae:	91 1d       	adc	r25, r1
    32b0:	96 95       	lsr	r25
    32b2:	87 95       	ror	r24
    32b4:	97 f9       	bld	r25, 7
    32b6:	08 95       	ret

000032b8 <__umulhisi3>:
    32b8:	a2 9f       	mul	r26, r18
    32ba:	b0 01       	movw	r22, r0
    32bc:	b3 9f       	mul	r27, r19
    32be:	c0 01       	movw	r24, r0
    32c0:	a3 9f       	mul	r26, r19
    32c2:	70 0d       	add	r23, r0
    32c4:	81 1d       	adc	r24, r1
    32c6:	11 24       	eor	r1, r1
    32c8:	91 1d       	adc	r25, r1
    32ca:	b2 9f       	mul	r27, r18
    32cc:	70 0d       	add	r23, r0
    32ce:	81 1d       	adc	r24, r1
    32d0:	11 24       	eor	r1, r1
    32d2:	91 1d       	adc	r25, r1
    32d4:	08 95       	ret

000032d6 <_exit>:
    32d6:	f8 94       	cli

000032d8 <__stop_program>:
    32d8:	ff cf       	rjmp	.-2      	; 0x32d8 <__stop_program>
